gvkey	year	gvkey	conm	year	Y	K	L	M	VA	w	i	naics_4digit
001056	1999	001056	AEROFLEX INC	1999	92.72775564409031	51.51939613244621	1.1	50.190880920761394	42.536874723328914	23840.047218533273	10.48847926267281	3344
001056	2000	001056	AEROFLEX INC	2000	122.68567092282821	106.64483214713105	1.18	68.55450196311328	54.13116895971493	28345.375960935697	8.175872504902351	3344
001056	2001	001056	AEROFLEX INC	2001	172.10106894155564	111.64529652602417	1.25	99.45277732601977	72.64829161553587	31764.418883155668	15.032798009500112	3344
001056	2002	001056	AEROFLEX INC	2002	156.51038850699004	128.0984189533375	2.03	72.15887078087587	84.35151772611415	34059.6277129837	6.828936966228329	3344
001056	2003	001056	AEROFLEX INC	2003	237.22915565673398	146.03095887499558	1.86	143.8304321313874	93.39872352534657	37331.59884548152	7.077532603312607	3344
001056	2004	001056	AEROFLEX INC	2004	349.608685741302	148.49308755760367	2.398	200.2746561753358	149.3340295659662	40407.10191055915	12.080391327454745	3344
001056	2005	001056	AEROFLEX INC	2005	405.1118629842369	152.3060879815921	2.64	236.6401063113629	168.471756672874	43090.198546961474	16.548308232878597	3344
001056	2006	001056	AEROFLEX INC	2006	501.00410356974254	171.05969334921892	2.675	305.34987017467404	195.65423339506847	46689.000254203434	16.082718240991625	3344
001072	1998	001072	AVX CORP	1998	585.7791555918504	870.2359181873597	13.0	194.06979344925702	391.7093621425934	20045.981077018307	110.93478799900818	3344
001072	1999	001072	AVX CORP	1999	748.2089420097388	941.8558001640068	13.5	265.4959421572967	482.71299985244207	23840.047218533273	115.63824884792626	3344
001072	2000	001072	AVX CORP	2000	821.8502754957274	1060.2569754991496	15.1	298.7062588670032	523.1440166287241	28345.375960935697	110.75909910114143	3344
001072	2001	001072	AVX CORP	2001	1205.1635938909176	1184.0564807383628	18.0	399.65403551310663	805.5095583778109	31764.418883155668	195.00226193168965	3344
001072	2002	001072	AVX CORP	2002	2014.453541360933	1269.2954955858747	18.0	664.1978836796169	1350.255657681316	34059.6277129837	253.1394403678919	3344
001072	2003	001072	AVX CORP	2003	1016.2852148461319	1414.987051560563	12.9	398.1288670271148	618.1563478190171	37331.59884548152	83.02976943817751	3344
001072	2004	001072	AVX CORP	2004	957.483937963815	1444.0386371281659	12.8	358.3359646086436	599.1479733551714	40407.10191055915	41.49068861918242	3344
001072	2005	001072	AVX CORP	2005	993.676397303748	1580.7535201114904	13.15	369.3777375613083	624.2986597424397	43090.198546961474	35.678982293860535	3344
001072	2006	001072	AVX CORP	2006	1164.9798452990522	1723.34032917265	12.0	467.3121618186439	697.6676834804083	46689.000254203434	50.166619950792615	3344
001072	2007	001072	AVX CORP	2007	1262.4358464481186	1887.7696127608347	12.1	496.983220650342	765.4526257977766	50649.58430392213	41.921609997565525	3344
001072	2008	001072	AVX CORP	2008	1473.5043659534297	1852.502365482874	13.0	545.963459723096	927.5409062303336	53492.76274386406	51.54748775423013	3344
001072	2009	001072	AVX CORP	2009	1619.275	2321.451779756094	14.0	631.5710000000001	987.704	54873.0	70.886	3344
001072	2011	001072	AVX CORP	2011	1343.4006938510793	2216.365366317793	10.6	463.3525154675259	880.0481783835534	60953.890816253	27.932701605105397	3344
001072	2012	001072	AVX CORP	2012	1700.3959968320253	1953.6831891323684	11.2	611.483702416095	1088.9122944159303	62223.95935118233	26.063360437204093	3344
001072	2013	001072	AVX CORP	2013	1585.2335911692894	1971.2433627125954	10.8	577.475327766265	1007.7582634030244	62682.861773938734	46.17730975710478	3344
001072	2014	001072	AVX CORP	2014	1444.400191987582	2033.0636567582728	10.7	558.8889229292403	885.5112690583418	64311.75515456021	40.34282865951594	3344
001161	1998	001161	ADVANCED MICRO DEVICES	1998	1322.289379099416	4792.848041380181	13.8	887.5928073944231	434.69657170499295	20045.981077018307	1176.2129101578644	3344
001161	1999	001161	ADVANCED MICRO DEVICES	1999	1686.6483694850228	5517.871134345279	13.387	1230.0756576656338	456.572711819389	23840.047218533273	714.0230414746544	3344
001161	2000	001161	ADVANCED MICRO DEVICES	2000	3064.5597017387577	6192.6941211878	14.696	1679.4349031640768	1385.1247985746809	28345.375960935697	912.9977443523799	3344
001161	2001	001161	ADVANCED MICRO DEVICES	2001	2876.941614796635	6695.1886538037215	14.415	1930.5564003430075	946.3852144536274	31764.418883155668	767.7731282515268	3344
001161	2002	001161	ADVANCED MICRO DEVICES	2002	2083.1304549316446	7519.027455600967	12.146	1744.086535877037	339.0439190546075	34059.6277129837	785.1629569419547	3344
001161	2003	001161	ADVANCED MICRO DEVICES	2003	2861.2285052237894	8457.473929549713	14.3	1718.9180047969433	1142.3105004268464	37331.59884548152	627.6520112254444	3344
001161	2004	001161	ADVANCED MICRO DEVICES	2004	4222.508801404848	12101.006775914268	15.9	2354.578925595414	1867.9298758094335	40407.10191055915	1561.9876571329407	3344
001161	2005	001161	ADVANCED MICRO DEVICES	2005	5112.367438648027	13032.461950810575	9.86	3404.9432860352686	1707.4241526127587	43090.198546961474	1601.4615767248404	3344
001161	2006	001161	ADVANCED MICRO DEVICES	2006	5128.554308748229	6220.15234122621	16.5	3234.243472418927	1894.3108363293024	46689.000254203434	1927.8084026285467	3344
001161	2007	001161	ADVANCED MICRO DEVICES	2007	5693.805276215367	8169.559843668229	16.42	4773.129007821525	920.6762683938414	50649.58430392213	1709.202304633612	3344
001161	2008	001161	ADVANCED MICRO DEVICES	2008	5711.139081183133	8555.407325459062	14.7	4674.048143486469	1037.0909376966647	53492.76274386406	619.9886732838535	3344
001161	2009	001161	ADVANCED MICRO DEVICES	2009	5403.0	7575.6453268703635	13.4	4052.7018	1350.2982000000002	54873.0	466.0	3344
001161	2010	001161	ADVANCED MICRO DEVICES	2010	6569.283994577862	7780.788356327925	11.1	5104.96429077225	1464.319703805612	58192.89052542133	146.07906035631447	3344
001161	2011	001161	ADVANCED MICRO DEVICES	2011	6761.4449397255485	2108.8614785360705	11.093	5322.459022637664	1438.9859170878844	60953.890816253	241.73274028234383	3344
001161	2012	001161	ADVANCED MICRO DEVICES	2012	5576.86967075692	2279.734653835373	10.34	4703.075774250949	873.7938965059712	62223.95935118233	126.18954998719127	3344
001161	2013	001161	ADVANCED MICRO DEVICES	2013	5436.098401690638	2302.5735255951085	10.671	4518.948437596176	917.1499640944621	62682.861773938734	78.83770694898074	3344
001161	2014	001161	ADVANCED MICRO DEVICES	2014	5622.785249634917	1834.1147459438864	9.687	4715.900746504906	906.8845031300106	64311.75515456021	87.69176805065815	3344
001327	1999	001327	SKYWORKS SOLUTIONS INC	1999	68.98686734543308	121.01758629230838	0.84	38.08325807879593	30.903609266637154	23840.047218533273	12.71774193548387	3344
001327	2000	001327	SKYWORKS SOLUTIONS INC	2000	83.3673166386222	131.08244531688166	0.94	38.63826586162526	44.72905077699693	28345.375960935697	20.096800154154813	3344
001327	2001	001327	SKYWORKS SOLUTIONS INC	2001	136.54139006756657	135.79367858578783	1.09	71.75716693525735	64.78422313230924	31764.418883155668	39.11332277765212	3344
001327	2002	001327	SKYWORKS SOLUTIONS INC	2002	353.5714837414073	167.59085469547142	4.0	217.82961303776938	135.74187070363791	34059.6277129837	32.74950172031756	3344
001327	2003	001327	SKYWORKS SOLUTIONS INC	2003	502.28789788202766	550.9843340116207	3.8	325.8101548843449	176.47774299768278	37331.59884548152	44.34490728003081	3344
001327	2004	001327	SKYWORKS SOLUTIONS INC	2004	661.9188328957255	425.3399971166322	4.2	409.35929149746295	252.55954139826255	40407.10191055915	65.07445850822677	3344
001327	2005	001327	SKYWORKS SOLUTIONS INC	2005	692.7470471494391	477.9544944682559	4.0	439.27575384023567	253.47129330920345	43090.198546961474	40.36004953062326	3344
001327	2006	001327	SKYWORKS SOLUTIONS INC	2006	707.0378036823183	466.5195852534562	4.0	460.16541380687806	246.87238987544026	46689.000254203434	51.2410850540347	3344
001327	2007	001327	SKYWORKS SOLUTIONS INC	2007	702.3691835691154	461.4953917050691	3.3	435.2340776092268	267.1351059598886	50649.58430392213	43.207822770429274	3344
001327	2008	001327	SKYWORKS SOLUTIONS INC	2008	845.6743628067967	492.223116420888	3.3	528.943124606671	316.7312382001258	53492.76274386406	64.41523343964549	3344
001327	2009	001327	SKYWORKS SOLUTIONS INC	2009	802.577	547.2012827222217	3.3	483.28009999999995	319.29690000000005	54873.0	39.172	3344
001327	2010	001327	SKYWORKS SOLUTIONS INC	2010	1084.2747890828898	541.135750839157	3.7	614.6334999089567	469.6412891739333	58192.89052542133	87.77476188126141	3344
001327	2011	001327	SKYWORKS SOLUTIONS INC	2011	1460.7129988984857	623.6262587354868	4.4	795.6402680694674	665.0727308290183	60953.890816253	97.33127054728293	3344
001327	2012	001327	SKYWORKS SOLUTIONS INC	2012	1613.3846929224565	712.5191825330469	4.7	928.896248830009	684.4884440924475	62223.95935118233	89.30899361461901	3344
001327	2013	001327	SKYWORKS SOLUTIONS INC	2013	1838.3635281807178	783.3608437924985	4.75	1071.796200168243	766.5673280124746	62682.861773938734	116.19176333671209	3344
001327	2014	001327	SKYWORKS SOLUTIONS INC	2014	2340.103959233275	853.7760688346399	5.55	1274.5557223532776	1065.5482368799974	64311.75515456021	192.55266121439251	3344
001577	1998	001577	AMERICAN TECHNICAL CERAMICS	1998	21.013456226950947	47.128932146343594	0.487	6.797036717242384	14.216419509708563	20045.981077018307	4.823302988440603	3344
001577	1999	001577	AMERICAN TECHNICAL CERAMICS	1999	22.172052530618267	51.25630959057768	0.324	11.09654183266932	11.075510697948946	23840.047218533273	4.112903225806451	3344
001577	2000	001577	AMERICAN TECHNICAL CERAMICS	2000	43.88663433303639	54.00123985876392	0.437	20.19811145204395	23.68852288099244	28345.375960935697	8.23141357695839	3344
001577	2001	001577	AMERICAN TECHNICAL CERAMICS	2001	62.528645563818614	59.11688639374251	0.66	26.384567618315412	36.1440779455032	31764.418883155668	14.67201990499887	3344
001577	2002	001577	AMERICAN TECHNICAL CERAMICS	2002	38.29844751679926	75.23839516281413	0.479	23.11773924461265	15.18070827218661	34059.6277129837	3.5141244196015995	3344
001577	2003	001577	AMERICAN TECHNICAL CERAMICS	2003	39.87804382291963	75.87584888082571	0.537	15.77796495792512	24.100078864994508	37331.59884548152	1.8797116601551753	3344
001577	2004	001577	AMERICAN TECHNICAL CERAMICS	2004	51.654326407591576	78.8369723971182	0.708	16.562185618884403	35.09214078870718	40407.10191055915	4.8872547424592465	3344
001577	2005	001577	AMERICAN TECHNICAL CERAMICS	2005	63.79118909609114	81.97534720553607	0.76	20.682525943994197	43.108663152096945	43090.198546961474	9.296516981172013	3344
001577	2006	001577	AMERICAN TECHNICAL CERAMICS	2006	76.37996150633693	92.08155125186217	0.782	26.105863020663108	50.27409848567382	46689.000254203434	8.625826611438121	3344
001608	1998	001608	AMP INC	1998	2851.2194868220527	6001.606941364149	48.535	1371.9716389341131	1479.2478478879395	20045.981077018307	561.8787857319968	3344
001632	1998	001632	ANALOG DEVICES	1998	640.0789584557848	1552.6083391156249	7.2	339.5058594664323	300.57309898935256	20045.981077018307	197.0776805639191	3344
001632	1999	001632	ANALOG DEVICES	1999	856.0596133982588	1722.5785727782327	7.4	451.46678471299987	404.5928286852589	23840.047218533273	89.28571428571429	3344
001632	2000	001632	ANALOG DEVICES	2000	1700.8459533471907	1811.5878314543047	9.1	833.336236761358	867.5097165858326	28345.375960935697	311.5253391972615	3344
001632	2001	001632	ANALOG DEVICES	2001	1683.187456569629	2140.3014646869983	9.0	898.7765572098111	784.4108993598179	31764.418883155668	336.1637638543316	3344
001632	2002	001632	ANALOG DEVICES	2002	1318.8445199660155	2409.4204319792098	8.6	713.3233953811695	605.5211245848459	34059.6277129837	63.926777939850126	3344
001632	2003	001632	ANALOG DEVICES	2003	1664.513191593154	2289.235426978711	8.4	902.5144111549251	761.9987804382289	37331.59884548152	74.54465415726628	3344
001632	2004	001632	ANALOG DEVICES	2004	2223.6105599972984	2103.733484467429	8.9	1144.7179751281164	1078.8925848691817	40407.10191055915	158.618857037495	3344
001632	2005	001632	ANALOG DEVICES	2005	2088.4657416878676	2143.4404260092333	8.8	1094.6323252987822	993.8334163890855	43090.198546961474	90.44312974271593	3344
001632	2006	001632	ANALOG DEVICES	2006	2336.1077822566003	2197.128452174324	9.8	1178.1851690452845	1157.9226132113156	46689.000254203434	134.2271637235666	3344
001632	2007	001632	ANALOG DEVICES	2007	2377.81660132947	2259.0391177547144	9.6	1212.281120390887	1165.5354809385829	50649.58430392213	143.84687170331898	3344
001632	2008	001632	ANALOG DEVICES	2008	2539.8550582127123	2219.0817972350233	9.0	1289.8698080553806	1249.9852501573314	53492.76274386406	156.39611712221924	3344
001632	2009	001632	ANALOG DEVICES	2009	2014.908	2326.6002304147464	8.3	1081.1191	933.7889	54873.0	56.095	3344
001632	2010	001632	ANALOG DEVICES	2010	2793.5167013980217	2338.841013824885	8.5	1249.38191676614	1544.1347846318815	58192.89052542133	110.10906578492819	3344
001632	2011	001632	ANALOG DEVICES	2011	3081.4811764584774	2421.134792626728	9.2	1292.7063280453785	1788.7748484130987	60953.890816253	118.92864049506865	3344
001632	2012	001632	ANALOG DEVICES	2012	2778.2952593522105	2523.1140708204925	9.2	1235.8400789936534	1542.455180358557	62223.95935118233	125.40774405343603	3344
001632	2013	001632	ANALOG DEVICES	2013	2701.8291306756396	2630.856151039637	9.1	1208.2611461047622	1493.5679845708773	62682.861773938734	115.51038029808161	3344
001632	2014	001632	ANALOG DEVICES	2014	2925.536390837699	2707.3004852821364	9.6	1232.80883959846	1692.727551239239	64311.75515456021	164.22637399154468	3344
001703	1998	001703	APPLIED MAGNETICS CORP	1998	95.49759951730273	468.33280767047245	5.154	39.87349690251908	55.62410261478365	20045.981077018307	42.36005336922768	3344
001866	2000	001866	AULT INC	2000	33.612458345705896	16.40765408605561	0.438	18.950986175723386	14.661472169982511	28345.375960935697	2.2545141289686366	3344
001866	2001	001866	AULT INC	2001	48.880790100093144	18.98625911385306	0.565	28.73908881233645	20.141701287756696	31764.418883155668	6.325491970142502	3344
001866	2002	001866	AULT INC	2002	66.1867614119101	21.329716772850567	0.471	46.65274812697922	19.53401328493087	34059.6277129837	3.519691790355087	3344
001866	2003	001866	AULT INC	2003	33.3607057197447	24.42692882885091	0.603	13.249036139680472	20.111669580064227	37331.59884548152	0.9233478236944919	3344
001866	2004	001866	AULT INC	2004	35.01903805077376	25.509039360801207	0.504	19.152917338556485	15.866120712217276	40407.10191055915	0.2960986561676374	3344
001866	2005	001866	AULT INC	2005	39.437493989386354	27.804165592743963	0.685	10.762631031377591	28.67486295800876	43090.198546961474	0.34078762157757153	3344
001866	2006	001866	AULT INC	2006	33.787268039365216	23.326445288096497	0.577	8.381106329665544	25.406161709699674	46689.000254203434	0.360231295483094	3344
002124	1998	002124	BEL FUSE INC	1998	47.20550524569188	73.0896741327727	0.965	17.67611688764285	29.529388358049033	20045.981077018307	4.3120446790171565	3344
002124	1999	002124	BEL FUSE INC	1999	70.51143573852737	81.26791434833923	1.025	28.397948944960895	42.11348679356647	23840.047218533273	6.07373271889401	3344
002124	2000	002124	BEL FUSE INC	2000	95.83094130456301	85.29823014423378	1.101	38.626443630604776	57.20449767395823	28345.375960935697	9.21301701370391	3344
002124	2001	002124	BEL FUSE INC	2001	71.00034005056403	95.03034711075442	0.866	33.9820261099694	37.01831394059464	31764.418883155668	6.757520922868129	3344
002124	2002	002124	BEL FUSE INC	2002	73.78388815941918	90.12236582102925	0.94	33.32109368965784	40.462794469761334	34059.6277129837	7.213085548218999	3344
002124	2003	002124	BEL FUSE INC	2003	128.8654010325623	95.65644292254257	1.479	52.023444855481905	76.84195617708038	37331.59884548152	3.432564793925054	3344
002124	2004	002124	BEL FUSE INC	2004	160.42787069322142	108.02897784612428	1.969	51.342533791484776	109.08533690173664	40407.10191055915	7.135652230501416	3344
002124	2005	002124	BEL FUSE INC	2005	188.76911375140975	111.08001841946796	1.851	76.90504804119564	111.86406571021412	43090.198546961474	8.197953157577233	3344
002124	2006	002124	BEL FUSE INC	2006	231.44587282565274	117.43663594470047	1.956	110.0036205832153	121.44225224243745	46689.000254203434	9.721054325370874	3344
002124	2007	002124	BEL FUSE INC	2007	245.38094426453043	101.69230246080954	1.948	120.26440543150957	125.11653883302085	50649.58430392213	9.300697882009251	3344
002124	2008	002124	BEL FUSE INC	2008	254.0414568911265	100.80298574983036	2.135	127.07481120201385	126.96664568911264	53492.76274386406	6.842727552733812	3344
002124	2009	002124	BEL FUSE INC	2009	182.753	98.69389482123172	2.674	34.840598	147.912402	54873.0	2.357	3344
002124	2010	002124	BEL FUSE INC	2010	306.046290489004	89.7650360424806	4.161	30.75880996216641	275.2874805268376	58192.89052542133	2.3954991857079406	3344
002124	2011	002124	BEL FUSE INC	2011	303.8130925786759	105.74518161802189	3.451	73.39924232285692	230.41385025581897	60953.890816253	2.831173854186811	3344
002124	2012	002124	BEL FUSE INC	2012	294.7800417596659	105.80375058297813	4.166	17.8205404071053	276.95950135256055	62223.95935118233	4.5010768807461305	3344
002345	1999	002345	WHITE ELECTRONIC DESIGNS CP	1999	34.25586542718017	12.772416292873004	0.259	26.484126309576503	7.771739117603662	23840.047218533273	2.4297235023041477	3344
002345	2000	002345	WHITE ELECTRONIC DESIGNS CP	2000	57.80131314131116	14.070788425871886	0.274	40.93639249067934	16.864920650631824	28345.375960935697	2.621765299298369	3344
002345	2001	002345	WHITE ELECTRONIC DESIGNS CP	2001	71.52963614589648	15.830234299250096	0.309	56.02301920546446	15.506616940432012	31764.418883155668	1.8389504636959964	3344
002345	2002	002345	WHITE ELECTRONIC DESIGNS CP	2002	69.86792307098169	16.02995391705069	0.312	49.25908395767359	20.608839113308104	34059.6277129837	5.342448975047045	3344
002345	2003	002345	WHITE ELECTRONIC DESIGNS CP	2003	92.30781739095085	20.7134194031035	0.485	58.099711370380916	34.208106020569936	37331.59884548152	4.250261376767733	3344
002345	2004	002345	WHITE ELECTRONIC DESIGNS CP	2004	91.99219904260977	27.508482243836237	0.518	61.30505795841177	30.687141084197997	40407.10191055915	2.4935194524886386	3344
002345	2005	002345	WHITE ELECTRONIC DESIGNS CP	2005	102.31681835269845	28.843434399670414	0.446	71.68410662610049	30.632711726597954	43090.198546961474	3.71373839787484	3344
002345	2006	002345	WHITE ELECTRONIC DESIGNS CP	2006	98.8923993172822	32.55909764054827	0.424	68.8010240766968	30.091375240585396	46689.000254203434	4.214809970205653	3344
002345	2007	002345	WHITE ELECTRONIC DESIGNS CP	2007	98.70367213984053	34.03070489187256	0.395	72.81200405280002	25.891668087040518	50649.58430392213	2.8270307554978493	3344
002345	2008	002345	WHITE ELECTRONIC DESIGNS CP	2008	55.41515890497167	36.44967809387553	0.223	36.2814663310258	19.133692573945876	53492.76274386406	2.9608433435671206	3344
002345	2009	002345	WHITE ELECTRONIC DESIGNS CP	2009	62.559	27.425301271116496	0.248	41.702496000000004	20.856503999999994	54873.0	4.151	3344
002498	1998	002498	BURR-BROWN CORP	1998	134.24705986382529	235.19446915177488	1.324	75.67495123613153	58.57210862769374	20045.981077018307	31.258781717497314	3344
002498	1999	002498	BURR-BROWN CORP	1999	172.02183857163936	260.6318820279367	1.522	89.30140061974323	82.72043795189612	23840.047218533273	28.52534562211982	3344
002577	1998	002577	CTS CORP	1998	192.68411936354698	290.14862591138535	4.012	76.49271116705592	116.19140819649108	20045.981077018307	25.18508023095179	3344
002577	1999	002577	CTS CORP	1999	399.63169544046036	264.4475571637939	9.222	103.25937612512915	296.37231931533125	23840.047218533273	37.89861751152074	3344
002577	2000	002577	CTS CORP	2000	571.7925368702366	380.8540970163376	9.06	200.85561384407268	370.9369230261639	28345.375960935697	135.1302948210784	3344
002577	2001	002577	CTS CORP	2001	427.02514895693184	507.5878300522199	5.837	201.77118071469755	225.2539682422343	31764.418883155668	87.82402171454422	3344
002577	2002	002577	CTS CORP	2002	353.5985170309724	479.56413090489696	5.313	135.38320769290183	218.21530933807057	34059.6277129837	14.289213775902194	3344
002577	2003	002577	CTS CORP	2003	376.4274970527257	480.6357825940699	5.041	145.97377454368066	230.45372250904506	37331.59884548152	9.953227315247895	3344
002577	2004	002577	CTS CORP	2004	448.56855808927196	461.72209140275845	4.487	222.2713053095477	226.2972527797243	40407.10191055915	13.786483584420656	3344
002577	2005	002577	CTS CORP	2005	539.8484013953366	472.4953054236165	4.902	272.3757669543019	267.47263444103476	43090.198546961474	15.88472488278811	3344
002577	2006	002577	CTS CORP	2006	595.2118967207757	444.56840580777396	4.977	310.69272342666227	284.51917329411344	46689.000254203434	16.388966748678982	3344
002577	2007	002577	CTS CORP	2007	649.5322235479046	436.9527596745094	4.746	351.4480294680227	298.08419407988185	50649.58430392213	16.288647244989043	3344
002577	2008	002577	CTS CORP	2008	680.1712948395217	431.40708347349704	5.044	351.0043659534298	329.16692888609185	53492.76274386406	17.53355788051308	3344
002577	2009	002577	CTS CORP	2009	498.982	418.8163775289538	4.316	225.05213200000003	273.929868	54873.0	6.537	3344
002577	2010	002577	CTS CORP	2010	559.0476864871426	415.41039934643663	4.369	257.1518663888158	301.89582009832685	58192.89052542133	13.098751418842225	3344
002577	2011	002577	CTS CORP	2011	605.8390553742574	387.9030707866788	4.234	309.7971566518083	296.0418987224492	60953.890816253	19.635467027654222	3344
002577	2012	002577	CTS CORP	2012	593.3966242555774	392.1920803498486	4.264	305.7610400831079	287.63558417246946	62223.95935118233	15.487158078503182	3344
002577	2013	002577	CTS CORP	2013	420.0547815917438	385.27419354838713	2.918	185.24832680194507	234.80645478979872	62682.861773938734	13.122724030483912	3344
002577	2014	002577	CTS CORP	2014	412.5905047843714	301.8061524541959	2.948	154.40473841691943	258.18576636745195	64311.75515456021	11.952849520926025	3344
002829	1998	002829	R F INDUSTRIES LTD	1998	3.3903242082048135	0.7926216251657366	0.034	2.0684587496684057	1.3218654585364078	20045.981077018307	0.1109891018147899	3344
002829	1999	002829	R F INDUSTRIES LTD	1999	3.624022428803305	0.8959618620302862	0.039	1.9523393832079092	1.671683045595396	23840.047218533273	0.03110599078341014	3344
002829	2000	002829	R F INDUSTRIES LTD	2000	5.874162789930383	0.897549931268699	0.044	3.344178956745521	2.5299838331848625	28345.375960935697	0.29357423801049615	3344
002829	2001	002829	R F INDUSTRIES LTD	2001	7.009477061371734	1.1983969495350375	0.06	3.9629640581338608	3.046513003237873	31764.418883155668	0.20583578375933045	3344
002829	2002	002829	R F INDUSTRIES LTD	2002	6.886537421796556	1.6312905460729354	0.054	4.428641384104426	2.4578960376921293	34059.6277129837	0.044538966027903665	3344
002829	2003	002829	R F INDUSTRIES LTD	2003	8.028781657790967	1.638499208365551	0.052	4.98911988292207	3.0396617748688963	37331.59884548152	0.05612722170252572	3344
002829	2004	002829	R F INDUSTRIES LTD	2004	9.4785009329067	1.6651448892306213	0.072	4.699154896282726	4.779346036623974	40407.10191055915	0.1757068948687079	3344
002829	2005	002829	R F INDUSTRIES LTD	2005	11.49841319799617	2.150511797779807	0.088	6.863678408127224	4.634734789868946	43090.198546961474	0.12594325145258078	3344
002829	2006	002829	R F INDUSTRIES LTD	2006	13.78872063042452	2.251661884689408	0.087	7.276438065148711	6.512282565275809	46689.000254203434	0.14741453590374454	3344
002829	2007	002829	R F INDUSTRIES LTD	2007	14.064541787398444	2.360599078341014	0.083	8.00561805200462	6.058923735393823	50649.58430392213	0.09535015824068814	3344
002829	2008	002829	R F INDUSTRIES LTD	2008	17.399897734424165	2.405268467406459	0.094	9.692023285084959	7.707874449339206	53492.76274386406	0.4580365038202828	3344
002829	2009	002829	R F INDUSTRIES LTD	2009	14.213	2.928941432506263	0.087	8.082049	6.130951	54873.0	0.217	3344
002829	2010	002829	R F INDUSTRIES LTD	2010	16.51121856475206	3.1635741246613693	0.11	7.443441843526817	9.067776721225242	58192.89052542133	0.15002714306864728	3344
002829	2011	002829	R F INDUSTRIES LTD	2011	20.006382606368195	3.3347313058952883	0.166	7.622211470161315	12.38417113620688	60953.890816253	0.3558305936956101	3344
002829	2012	002829	R F INDUSTRIES LTD	2012	31.09655122759018	5.636406150831209	0.178	15.21215350277198	15.8843977248182	62223.95935118233	0.5597882292664876	3344
002829	2013	002829	R F INDUSTRIES LTD	2013	37.57258047969798	3.179273339189518	0.145	20.861332813557937	16.71124766614005	62682.861773938734	0.2637309006269475	3344
002829	2014	002829	R F INDUSTRIES LTD	2014	23.605281700928277	3.259	0.143	11.490080981996055	12.115200718932222	64311.75515456021	0.13661454391049901	3344
002908	1998	002908	TERAFORCE TECHNOLOGY CORP	1998	10.060181115509252	10.150103710249518	0.307	16.286625956422007	-6.226444840912754	20045.981077018307	2.4027959807776322	3344
002908	1999	002908	TERAFORCE TECHNOLOGY CORP	1999	9.856278589346319	12.396078619827959	0.208	15.862282425852149	-6.00600383650583	23840.047218533273	1.2039170506912442	3344
002908	2000	002908	TERAFORCE TECHNOLOGY CORP	2000	12.372562605166783	12.626781434120884	0.194	18.746600679666102	-6.374038074499321	28345.375960935697	2.1400315110572072	3344
002908	2001	002908	TERAFORCE TECHNOLOGY CORP	2001	5.0430977127903365	4.308755760368664	0.056	13.235164185283201	-8.192066472492865	31764.418883155668	0.367563899570233	3344
002908	2002	002908	TERAFORCE TECHNOLOGY CORP	2002	3.889704178574187	2.039150788343176	0.048	8.318795087665098	-4.4290909090909105	34059.6277129837	0.19931187297486888	3344
002908	2003	002908	TERAFORCE TECHNOLOGY CORP	2003	5.0465466075856735	2.2420457250376886	0.042	7.401543152160657	-2.354996544574983	37331.59884548152	0.03521708028393771	3344
002908	2004	002908	TERAFORCE TECHNOLOGY CORP	2004	7.923375011608567	2.314516129032258	0.039	7.206954165154035	0.7164208464545315	40407.10191055915	0.1691992320957928	3344
003333	1998	003333	ARTESYN TECHNOLOGIES INC	1998	276.9225967865261	141.63758896516973	4.29	155.4278424784009	121.49475430812525	20045.981077018307	31.637797692843566	3344
003333	1999	003333	ARTESYN TECHNOLOGIES INC	1999	350.68909546997196	181.59485353130017	4.628	190.44559657665633	160.24349889331563	23840.047218533273	38.43202764976959	3344
003333	2000	003333	ARTESYN TECHNOLOGIES INC	2000	455.3650730806031	208.44100125033708	5.227	245.26113563627962	210.1039374443235	28345.375960935697	44.496333155753035	3344
003333	2001	003333	ARTESYN TECHNOLOGIES INC	2001	365.1610804737052	251.9889048443119	2.427	298.24004391087715	66.92103656282805	31764.418883155668	32.529970594888034	3344
003333	2002	003333	ARTESYN TECHNOLOGIES INC	2002	270.9731984243454	246.72016915757607	2.366	202.4125264540048	68.56067197034064	34059.6277129837	5.823469808148404	3344
003333	2003	003333	ARTESYN TECHNOLOGIES INC	2003	290.15081913898933	238.51912200536054	1.341	225.26984348957274	64.88097564941661	37331.59884548152	7.792879546580092	3344
003333	2004	003333	ARTESYN TECHNOLOGIES INC	2004	362.5157243324018	230.00838321939239	1.482	265.3667868329295	97.14893749947231	40407.10191055915	24.013275632056747	3344
003333	2005	003333	ARTESYN TECHNOLOGIES INC	2005	371.3038004563695	248.93556728419114	1.337	280.5634510976473	90.74034935872221	43090.198546961474	13.331992760908907	3344
003532	1998	003532	CORNING INC	1998	1837.3705481839038	5189.421942077481	15.4	1063.1820569770043	774.1884912068992	20045.981077018307	842.5725856918518	3344
003532	1999	003532	CORNING INC	1999	2822.7829423048547	5902.731344225068	21.5	1609.5579164822193	1213.2250258226354	23840.047218533273	872.2350230414747	3344
003532	2000	003532	CORNING INC	2000	4725.791019169224	7002.078478301946	40.3	2288.0155729321323	2437.7754462370913	28345.375960935697	1728.460832209288	3344
003532	2001	003532	CORNING INC	2001	4636.515516655085	8998.25933462453	31.7	3034.4949509883645	1602.0205656667208	31764.418883155668	2035.738520696675	3344
003532	2002	003532	CORNING INC	2002	2443.809376689581	9808.256043058293	23.2	1637.4060400092685	806.4033366803121	34059.6277129837	397.5102717990402	3344
003532	2003	003532	CORNING INC	2003	2512.2972478556035	8359.60468987992	20.6	1765.2184235131508	747.0788243424529	37331.59884548152	402.7953557475376	3344
003532	2004	003532	CORNING INC	2004	3253.7759504250844	8306.471609223903	24.7	1530.5016589698344	1723.2742914552498	40407.10191055915	929.5111660647079	3344
003532	2005	003532	CORNING INC	2005	4003.2872592476024	8823.633594275796	26.0	1950.9691294882891	2052.3181297593133	43090.198546961474	1643.6123487887223	3344
003532	2006	003532	CORNING INC	2006	4697.316338017939	9808.366689100634	24.5	2199.802538402876	2497.5137996150634	46689.000254203434	1227.0702918184934	3344
003532	2007	003532	CORNING INC	2007	5548.927144291044	10691.244239631336	24.8	2698.211086491298	2850.716057799746	50649.58430392213	1280.1265925505152	3344
003532	2008	003532	CORNING INC	2008	5848.804279421019	11839.316278068078	27.0	2207.75645059786	3641.0478288231593	53492.76274386406	1908.6510278498117	3344
003532	2009	003532	CORNING INC	2009	5395.0	15006.785795068989	23.5	2694.4845	2700.5155	54873.0	890.0	3344
003532	2010	003532	CORNING INC	2010	6708.883808444777	15029.674086116092	26.2	2831.2650980233475	3877.6187104214296	58192.89052542133	993.9298228297882	3344
003532	2011	003532	CORNING INC	2011	8122.38132984692	16907.50013756672	28.8	3532.826156332678	4589.555173514243	60953.890816253	2351.576097466641	3344
003532	2012	003532	CORNING INC	2012	8240.848358927415	19387.41201097626	28.7	3911.383931785688	4329.4644271417255	62223.95935118233	1708.7772896761767	3344
003532	2013	003532	CORNING INC	2013	8021.2971131947725	19823.42541676157	30.4	3612.6092041281113	4408.687909066661	62682.861773938734	956.376468821564	3344
003532	2014	003532	CORNING INC	2014	9921.060425027828	18696.751934128504	34.6	4595.478488199911	5325.581936827916	64311.75515456021	993.2246570790334	3344
003756	1998	003756	SMTEK INTERNATIONAL INC	1998	27.70567949524845	28.91100333816212	0.53	14.406708868002058	13.298970627246394	20045.981077018307	0.9268770736660645	3344
003756	1999	003756	SMTEK INTERNATIONAL INC	1999	35.11406226944075	30.119040120929643	0.62	18.304606758152573	16.809455511288178	23840.047218533273	1.881336405529954	3344
003756	2000	003756	SMTEK INTERNATIONAL INC	2000	46.357187634036094	34.55933988764045	0.575	27.31353723316507	19.043650400871023	28345.375960935697	2.540153928113984	3344
003756	2001	003756	SMTEK INTERNATIONAL INC	2001	67.38028002424709	21.99122312388144	0.521	46.200416192320766	21.179863831926312	31764.418883155668	0.572268717484732	3344
003756	2002	003756	SMTEK INTERNATIONAL INC	2002	57.32756623155943	22.985246768225288	0.65	36.842473159805365	20.48509307175407	34059.6277129837	4.320279704706655	3344
003756	2003	003756	SMTEK INTERNATIONAL INC	2003	57.50071141103297	27.350548451465887	0.523	36.701436643766	20.79927476726696	37331.59884548152	0.8375061905023937	3344
003756	2004	003756	SMTEK INTERNATIONAL INC	2004	78.75505500350367	19.01691993435113	0.733	45.05549908397848	33.69955591952519	40407.10191055915	1.9631449364960576	3344
003962	1998	003962	NORTECH SYSTEMS INC	1998	20.991089865957882	13.983497191011235	0.6	7.6672925780091905	13.32379728794869	20045.981077018307	0.5407766875656784	3344
003962	1999	003962	NORTECH SYSTEMS INC	1999	22.713294968275047	14.485102327447832	0.695	4.135313560572526	18.57798140770252	23840.047218533273	1.2327188940092166	3344
003962	2000	003962	NORTECH SYSTEMS INC	2000	36.12854267709261	12.806148716565739	0.904	7.10863175954337	29.019910917549243	28345.375960935697	1.0643482991963547	3344
003962	2001	003962	NORTECH SYSTEMS INC	2001	43.21673048775079	13.877535991752275	0.715	16.503662935967	26.713067551783787	31764.418883155668	0.805247681520018	3344
003962	2002	003962	NORTECH SYSTEMS INC	2002	46.84946319610721	14.56116450041116	0.678	19.43325403568394	27.416209160423268	34059.6277129837	1.2036655569040966	3344
003962	2003	003962	NORTECH SYSTEMS INC	2003	47.12305378267409	15.659089816906148	0.617	22.117019391032155	25.006034391641936	37331.59884548152	1.5627579375997358	3344
003962	2004	003962	NORTECH SYSTEMS INC	2004	61.35571183736186	16.862078329968238	0.925	21.592421082847185	39.76329075451467	40407.10191055915	1.574854391045456	3344
003962	2005	003962	NORTECH SYSTEMS INC	2005	73.62761297767986	17.403225806451612	1.016	26.616665355260043	47.01094762241981	43090.198546961474	1.5102606707801074	3344
003962	2006	003962	NORTECH SYSTEMS INC	2006	95.46065293968115	19.067972350230413	1.008	44.544235029233384	50.91641791044777	46689.000254203434	3.0936289929095686	3344
003962	2007	003962	NORTECH SYSTEMS INC	2007	111.82982027536315	21.625879872595583	0.941	58.993666079578816	52.83615419578433	50649.58430392213	1.533717438935324	3344
003962	2008	003962	NORTECH SYSTEMS INC	2008	119.81985525487727	23.42230264646008	0.996	61.28716960352422	58.53268565135305	53492.76274386406	2.3001182350194243	3344
003962	2009	003962	NORTECH SYSTEMS INC	2009	79.94	26.52001809545352	0.538	53.01532599999999	26.92467400000001	54873.0	0.68	3344
003962	2010	003962	NORTECH SYSTEMS INC	2010	100.9771986970684	24.936253604872565	0.709	56.70692738786492	44.27027130920347	58192.89052542133	0.61886196515817	3344
003962	2011	003962	NORTECH SYSTEMS INC	2011	117.60055178661507	24.40401296083912	0.807	64.763411194268	52.83714059234706	60953.890816253	1.2280023206343067	3344
003962	2012	003962	NORTECH SYSTEMS INC	2012	109.99146292543945	27.54305838331591	0.717	61.97645413122409	48.01500879421536	62223.95935118233	4.206002068370067	3344
003962	2013	003962	NORTECH SYSTEMS INC	2013	113.93134861199451	31.890166730864472	0.777	61.60133158251093	52.33001702948358	62682.861773938734	1.1309456770657358	3344
003962	2014	003962	NORTECH SYSTEMS INC	2014	114.41847165630138	32.516621655332486	0.813	58.7078745544969	55.71059710180448	64311.75515456021	2.0187568076504143	3344
003969	1998	003969	DIODES INC	1998	31.631235923496643	9.790078250401285	0.353	21.617729242196482	10.013506681300163	20045.981077018307	11.562939085874865	3344
003969	1999	003969	DIODES INC	1999	46.77644975652944	20.929662408982814	0.609	26.31717928286853	20.459270473660908	23840.047218533273	11.453917050691244	3344
003969	2000	003969	DIODES INC	2000	78.16952060444093	32.67793364998711	0.791	40.25787983767198	37.911640766768954	28345.375960935697	19.23307980912007	3344
003969	2001	003969	DIODES INC	2001	70.40007688099709	65.67839136646477	0.748	40.32274346881146	30.077333412185627	31764.418883155668	9.587197466636509	3344
003969	2002	003969	DIODES INC	2002	89.45778944929327	72.98847926267281	0.958	42.47939599907314	46.97839345022013	34059.6277129837	7.739758821498959	3344
003969	2003	003969	DIODES INC	2003	111.30940282125289	82.41728347483082	1.087	49.61852758242205	61.690875238830834	37331.59884548152	17.218951191327797	3344
003969	2004	003969	DIODES INC	2004	156.78151409491164	94.23506341883636	1.37	61.75794237084939	95.02357172406224	40407.10191055915	28.417878718858123	3344
003969	2005	003969	DIODES INC	2005	187.76282774236978	113.69373444921965	1.621	68.42375307087714	119.33907467149264	43090.198546961474	20.725602463831002	3344
003969	2006	003969	DIODES INC	2006	311.6788321167883	134.89627988286253	2.268	134.34339615789665	177.33543595889168	46689.000254203434	47.39688768465747	3344
003969	2007	003969	DIODES INC	2007	379.863833494309	184.9788147251417	2.612	163.78021324545955	216.08362024884948	50649.58430392213	56.90680029213665	3344
003969	2008	003969	DIODES INC	2008	425.567377281309	238.03620429722667	3.067	186.27300975456262	239.29436752674636	53492.76274386406	52.903712977038566	3344
003969	2009	003969	DIODES INC	2009	434.357	334.9114415557653	3.501	177.350627	257.00637300000005	54873.0	22.477	3344
003969	2010	003969	DIODES INC	2010	619.9910979828838	356.1188311619588	3.986	229.3436421389119	390.64745584397195	58192.89052542133	87.65631939989143	3344
003969	2011	003969	DIODES INC	2011	653.9608190325204	431.81870088344914	4.499	242.3724868487425	411.5883321837779	60953.890816253	78.26435892477278	3344
003969	2012	003969	DIODES INC	2012	651.9095275809223	498.68234196218447	4.605	275.8749678574	376.0345597235222	62223.95935118233	55.187529056804266	3344
003969	2013	003969	DIODES INC	2013	848.2385769096617	573.82435283616	6.151	327.197519440284	521.0410574693777	62682.861773938734	44.162255509254045	3344
003969	2014	003969	DIODES INC	2014	909.5421913135831	703.9136785001043	6.794	307.5958212064581	601.946370107125	64311.75515456021	53.322133402255986	3344
004352	1998	004352	ENERGY CONVERSION DEV	1998	16.414828377190474	44.27378309395437	0.362	16.811639870379135	-0.39681149318866166	20045.981077018307	2.0096111839231106	3344
004352	1999	004352	ENERGY CONVERSION DEV	1999	19.461118489006935	36.78210880538419	0.325	18.21686586985392	1.2442526191530172	23840.047218533273	1.523041474654378	3344
004352	2000	004352	ENERGY CONVERSION DEV	2000	19.782242898149065	36.9100563327134	0.399	17.61625655745818	2.165986340690885	28345.375960935697	0.7911769039819548	3344
004352	2001	004352	ENERGY CONVERSION DEV	2001	52.78471842334816	35.953205452446724	0.503	42.547417094194	10.237301329154157	31764.418883155668	2.533363492422529	3344
004352	2002	004352	ENERGY CONVERSION DEV	2002	70.8349424577122	34.75740243570289	0.519	68.57469452382792	2.2602479338843	34059.6277129837	8.537006313398434	3344
004352	2003	004352	ENERGY CONVERSION DEV	2003	52.993211106142525	42.25067810509052	0.538	56.52684418065775	-3.5336330745152256	37331.59884548152	5.651240851813129	3344
004352	2004	004352	ENERGY CONVERSION DEV	2004	55.97862335052808	125.19688001605137	0.721	62.84263763539812	-6.864014284870035	40407.10191055915	3.8471133092549814	3344
004352	2005	004352	ENERGY CONVERSION DEV	2005	136.88462244603562	121.6240568984574	0.746	59.82365777532981	77.0609646707058	43090.198546961474	3.302041550689513	3344
004352	2006	004352	ENERGY CONVERSION DEV	2006	92.98307731415913	102.98561599582875	0.964	65.76367432908451	27.219402985074613	46689.000254203434	71.6517694934961	3344
004352	2007	004352	ENERGY CONVERSION DEV	2007	107.53839743953941	193.96385662906837	1.204	69.8788364297483	37.659561009791105	50649.58430392213	189.67479509859612	3344
004352	2008	004352	ENERGY CONVERSION DEV	2008	251.59396633102577	388.88570956914106	1.768	129.1238593455003	122.47010698552545	53492.76274386406	116.58072272397587	3344
004352	2009	004352	ENERGY CONVERSION DEV	2009	316.293	504.3395264590722	1.8	158.80259999999998	157.49040000000002	54873.0	242.257	3344
004352	2010	004352	ENERGY CONVERSION DEV	2010	257.3654075707609	730.2002553801116	1.5	204.08683513059663	53.27857244016429	58192.89052542133	31.57676553323792	3344
004352	2011	004352	ENERGY CONVERSION DEV	2011	239.3950936287176	369.6766209526901	1.3	195.56408857410514	43.83100505461246	60953.890816253	37.147553664668344	3344
004450	2004	004450	ESPEY MFG & ELECTRONICS CORP	2004	19.00174761707768	16.91460376203867	0.181	10.221583493039082	8.780164124038597	40407.10191055915	0.4490287313311424	3344
004450	2005	004450	ESPEY MFG & ELECTRONICS CORP	2005	16.461650099229768	17.340055075546747	0.169	7.737733539661306	8.723916559568462	43090.198546961474	0.4497973266163599	3344
004450	2006	004450	ESPEY MFG & ELECTRONICS CORP	2006	18.930892980353708	17.867498142293066	0.169	8.826158441369794	10.104734538983912	46689.000254203434	0.48688322069617035	3344
004450	2007	004450	ESPEY MFG & ELECTRONICS CORP	2007	26.18790599018995	15.009029406215467	0.179	13.58774027990834	12.60016571028161	50649.58430392213	0.573115312829668	3344
004450	2008	004450	ESPEY MFG & ELECTRONICS CORP	2008	25.273363750786658	14.519538798749725	0.167	11.687971994965388	13.58539175582127	53492.76274386406	0.5146700845529425	3344
004450	2009	004450	ESPEY MFG & ELECTRONICS CORP	2009	27.242	14.568851321516433	0.168	14.275336	12.966664000000002	54873.0	0.281	3344
004450	2010	004450	ESPEY MFG & ELECTRONICS CORP	2010	29.23503348372347	14.589036775373748	0.166	14.301580108038115	14.933453375685355	58192.89052542133	0.43132803632236094	3344
004450	2011	004450	ESPEY MFG & ELECTRONICS CORP	2011	30.368852880923214	15.39499111578019	0.166	14.312624177724702	16.05622870319851	60953.890816253	0.5869270934055308	3344
004450	2012	004450	ESPEY MFG & ELECTRONICS CORP	2012	32.95207924050893	14.712672680249797	0.165	16.08380732954136	16.868271910967565	62223.95935118233	0.25427668719223506	3344
004450	2013	004450	ESPEY MFG & ELECTRONICS CORP	2013	35.185375161574925	14.954898126537563	0.173	15.929085537249435	19.25628962432549	62682.861773938734	0.30314975410143785	3344
004450	2014	004450	ESPEY MFG & ELECTRONICS CORP	2014	27.71259050478437	15.279126979120672	0.145	16.58086455684569	11.131725947938683	64311.75515456021	0.6553805822733398	3344
004476	1998	004476	EXAR CORP	1998	48.0320203065752	84.57258472432979	0.353	35.01153844153277	13.020481865042422	20045.981077018307	17.352083407129278	3344
004476	1999	004476	EXAR CORP	1999	60.212483399734396	82.49669332997416	0.347	42.28851881363435	17.923964586100045	23840.047218533273	5.57258064516129	3344
004476	2000	004476	EXAR CORP	2000	47.42353756310007	78.35699237560192	0.269	33.500832096077076	13.922705467022993	28345.375960935697	6.047175906509641	3344
004476	2001	004476	EXAR CORP	2001	58.070286973106434	65.88786192355782	0.276	41.183491284356194	16.886795688750237	31764.418883155668	2.83080750961321	3344
004476	2002	004476	EXAR CORP	2002	87.2202054530007	67.83569099512123	0.288	60.370019309492555	26.850186143508147	34059.6277129837	5.551782115378192	3344
004476	2003	004476	EXAR CORP	2003	44.707508435302245	73.03317070778886	0.29	37.95061587869425	6.756892556607991	37331.59884548152	2.9175149947724646	3344
004476	2004	004476	EXAR CORP	2004	56.57213774937313	69.95758660423152	0.265	45.690338294764736	10.881799454608394	40407.10191055915	6.491393615982821	3344
004476	2005	004476	EXAR CORP	2005	58.74751925582046	76.30496950059526	0.267	40.55338823755694	18.194131018263523	43090.198546961474	6.105601828823013	3344
004476	2006	004476	EXAR CORP	2006	52.08356030068635	80.09154692681052	0.268	37.954900679086315	14.128659621600034	46689.000254203434	3.215090265449978	3344
004476	2007	004476	EXAR CORP	2007	63.46609094180255	81.47426587793561	0.255	45.590501486657956	17.875589455144596	50649.58430392213	5.121520733587601	3344
004476	2008	004476	EXAR CORP	2008	67.35958149779735	85.5852534562212	0.234	52.20991976085587	15.149661736941475	53492.76274386406	2.9330233389966915	3344
004476	2009	004476	EXAR CORP	2009	89.743	83.51563651202069	0.404	80.55630799999999	9.186692000000008	54873.0	4.923	3344
004476	2010	004476	EXAR CORP	2010	116.45254617921378	111.07906779944105	0.368	100.63369413478463	15.81885204442916	58192.89052542133	2.2257316290776292	3344
004476	2011	004476	EXAR CORP	2011	138.85051318214104	113.09884055141596	0.572	110.29852067655628	28.55199250558476	60953.890816253	5.637207503384259	3344
004476	2012	004476	EXAR CORP	2012	150.17537002561122	119.25363142092023	0.477	130.00155107330568	20.173818952305535	62223.95935118233	3.468789434234371	3344
004476	2013	004476	EXAR CORP	2013	133.9440694310511	120.22812403747753	0.304	116.1338886723158	17.810180758735303	62682.861773938734	2.3829635469459776	3344
004476	2014	004476	EXAR CORP	2014	124.61423771739018	109.12694864228442	0.291	92.21018963879783	32.40404807859236	64311.75515456021	1.278453671054332	3344
005070	1998	005070	GENERAL MICROWAVE CORP	1998	10.434687625160597	19.951043958445645	0.273	4.365004967412733	6.0696826577478635	20045.981077018307	0.48292066640690495	3344
005070	1999	005070	GENERAL MICROWAVE CORP	1999	12.582558654271802	20.217679541911323	0.243	5.317979637007528	7.264579017264275	23840.047218533273	0.43894009216589863	3344
005404	1998	005404	HEI INC	1998	10.821677685133652	15.322793978711342	0.13	6.996473397034116	3.825204288099537	20045.981077018307	1.2102535038314854	3344
005404	1999	005404	HEI INC	1999	14.356204810388077	16.540908232033757	0.14	10.304417884019477	4.0517869263686	23840.047218533273	4.043778801843318	3344
005404	2000	005404	HEI INC	2000	28.2417763700551	20.789024879614765	0.222	20.9197056979775	7.322070672077602	28345.375960935697	4.906883692461149	3344
005404	2001	005404	HEI INC	2001	33.141623667519255	26.540243693152565	0.207	24.634014666528678	8.507609000990577	31764.418883155668	3.8656412576340196	3344
005404	2002	005404	HEI INC	2002	22.037537653510466	28.64857567166194	0.193	15.297967869004403	6.739569784506063	34059.6277129837	2.550969279248182	3344
005404	2003	005404	HEI INC	2003	31.253302979795922	30.452339626651554	0.284	20.497464124557908	10.755838855238016	37331.59884548152	0.4864359214218896	3344
005404	2004	005404	HEI INC	2004	36.57331971261408	30.308289941317465	0.299	28.11600209376345	8.457317618850627	40407.10191055915	0.8058655733793209	3344
005404	2005	005404	HEI INC	2005	49.51084533270386	29.920506912442395	0.454	27.857513048495818	21.65333228420804	43090.198546961474	1.3906674992326988	3344
005404	2006	005404	HEI INC	2006	47.782075026328215	32.76894194325387	0.466	28.536167701637794	19.245907324690418	46689.000254203434	0.9914146604794086	3344
005404	2007	005404	HEI INC	2007	36.34641971100127	34.236595704485616	0.252	27.77472113326894	8.57169857773233	50649.58430392213	0.45747788687819524	3344
005791	1998	005791	HUTCHINSON TECHNOLOGY INC	1998	212.02061866394803	439.12319434807296	7.764	63.78168559138217	148.23893307256586	20045.981077018307	244.27992868359843	3344
005791	1999	005791	HUTCHINSON TECHNOLOGY INC	1999	342.4937287885495	685.8271468699838	7.701	89.76769012837542	252.72603866017405	23840.047218533273	138.93548387096774	3344
005791	2000	005791	HUTCHINSON TECHNOLOGY INC	2000	303.2577782176911	760.4807668734217	4.729	132.22942096407007	171.02835725362107	28345.375960935697	73.2881448148442	3344
005791	2001	005791	HUTCHINSON TECHNOLOGY INC	2001	296.6098437245886	778.8836113258957	3.454	150.89601401599717	145.71382970859145	31764.418883155668	36.24406242931463	3344
005791	2002	005791	HUTCHINSON TECHNOLOGY INC	2002	301.76411523905153	774.4581671392186	3.336	123.70928245925697	178.05483277979457	34059.6277129837	35.53764099366433	3344
005791	2003	005791	HUTCHINSON TECHNOLOGY INC	2003	405.6636448636123	765.7828343505215	3.446	163.74605796983616	241.9175868937762	37331.59884548152	57.25306773785287	3344
005791	2004	005791	HUTCHINSON TECHNOLOGY INC	2004	396.54529029861453	818.200228285283	3.85	159.7078440146226	236.83744628399194	40407.10191055915	100.96096486946713	3344
005791	2005	005791	HUTCHINSON TECHNOLOGY INC	2005	552.1730007606159	883.6641015255839	5.31	211.55963840148283	340.613362359133	43090.198546961474	208.6244668578746	3344
005791	2006	005791	HUTCHINSON TECHNOLOGY INC	2006	655.0341358898935	1091.172088999952	5.433	291.59413607146746	363.4399998184261	46689.000254203434	257.200992452791	3344
005791	2007	005791	HUTCHINSON TECHNOLOGY INC	2007	678.0893131072098	1286.1854838709678	4.698	343.6951290646364	334.39418404257344	50649.58430392213	103.70749817414591	3344
005791	2008	005791	HUTCHINSON TECHNOLOGY INC	2008	621.0853917558212	1355.934393525498	4.591	298.91008495909375	322.1753067967275	53492.76274386406	65.1812771369241	3344
005791	2009	005791	HUTCHINSON TECHNOLOGY INC	2009	408.022	1411.362813843022	2.448	274.30689599999994	133.71510400000005	54873.0	20.609	3344
005791	2010	005791	HUTCHINSON TECHNOLOGY INC	2010	351.21391142492973	1097.1115132323005	2.546	194.22057175228116	156.99333967264857	58192.89052542133	30.97468291960717	3344
005791	2011	005791	HUTCHINSON TECHNOLOGY INC	2011	286.2804846663029	1164.5668202764978	2.317	143.13965554514664	143.1408291211563	60953.890816253	13.059369561013344	3344
005791	2012	005791	HUTCHINSON TECHNOLOGY INC	2012	255.68949734116413	1199.3896871545965	2.06	127.39705625212139	128.2924410890427	62223.95935118233	26.452365816863853	3344
005791	2013	005791	HUTCHINSON TECHNOLOGY INC	2013	256.05367364943885	1113.4117041359189	2.436	85.8988982129301	170.15477543650874	62682.861773938734	17.719713180913764	3344
005791	2014	005791	HUTCHINSON TECHNOLOGY INC	2014	266.62479703440454	1104.6752801000268	2.489	85.31268037131213	181.31211666309244	64311.75515456021	15.953440286521316	3344
005818	2001	005818	HYTEK MICROSYSTEMS INC	2001	7.007998580658516	6.075794442906473	0.12	4.321392137439568	2.6866064432189476	31764.418883155668	1.0879891427278896	3344
005818	2002	005818	HYTEK MICROSYSTEMS INC	2002	8.714760176102573	6.656031542222741	0.106	5.396399165829922	3.3183610102726497	34059.6277129837	0.20710619202975203	3344
005818	2003	005818	HYTEK MICROSYSTEMS INC	2003	8.277572259034919	5.888227436027132	0.087	5.554134720923614	2.7234375381113054	37331.59884548152	0.17718593517856163	3344
005818	2004	005818	HYTEK MICROSYSTEMS INC	2004	8.559946642802265	5.904245253264366	0.09	5.149569005546784	3.41037763725548	40407.10191055915	0.17245306348225037	3344
005831	1998	005831	IEC ELECTRONICS CORP	1998	129.0793901785668	97.2236568621276	1.536	93.70678012826848	35.37261005029831	20045.981077018307	9.554508637077445	3344
005831	1999	005831	IEC ELECTRONICS CORP	1999	92.95440460380699	106.46945224719101	1.315	63.16472480448576	29.78967979932123	23840.047218533273	2.8041474654377883	3344
005831	2000	005831	IEC ELECTRONICS CORP	2000	134.7177406051008	104.94128318909509	1.509	92.61037711570819	42.107363489392604	28345.375960935697	2.067488070004421	3344
005831	2001	005831	IEC ELECTRONICS CORP	2001	118.75009240504457	101.90860754414125	0.7	102.20419297130267	16.545899433741898	31764.418883155668	4.479755711377516	3344
005831	2002	005831	IEC ELECTRONICS CORP	2002	30.404726963775396	101.4826478553883	0.19	24.146574496022247	6.258152467753146	34059.6277129837	0.21156008863254241	3344
005831	2013	005831	IEC ELECTRONICS CORP	2013	144.5926260284372	46.20480933252628	0.951	77.78062537187878	66.81200065655841	62682.861773938734	4.78939069715058	3344
005831	2014	005831	IEC ELECTRONICS CORP	2014	138.49759504917128	47.72072547269334	0.994	68.88458891169596	69.61300613747534	64311.75515456021	4.121513098380933	3344
005973	1998	005973	INNOVEX INC	1998	50.07880241140581	45.08426966292134	0.619	23.61126172283398	26.46754068857183	20045.981077018307	15.030758150024207	3344
005976	1998	005976	INSILCO HOLDING CO	1998	278.606315636167	222.3302066613162	5.471	137.27230836449885	141.3340072716681	20045.981077018307	23.79771645826692	3344
005976	1999	005976	INSILCO HOLDING CO	1999	281.1598052235502	244.92124799357944	4.122	154.56001062416996	126.59979459938027	23840.047218533273	17.389400921658986	3344
005976	2000	005976	INSILCO HOLDING CO	2000	244.71147184004752	226.87121527862902	4.472	83.45294664951003	161.2585251905375	28345.375960935697	11.197760221257495	3344
005976	2001	005976	INSILCO HOLDING CO	2001	181.94109732838535	134.3802545503639	5.385	10.633924479205158	171.30717284918018	31764.418883155668	7.017643067179371	3344
006003	1998	006003	INTEGRATED DEVICE TECH INC	1998	279.4302299573999	833.808112029269	4.236	147.74895372243864	131.68127623496125	20045.981077018307	227.5831532712267	3344
006003	1999	006003	INTEGRATED DEVICE TECH INC	1999	346.54625940681717	955.113864365971	4.979	152.88488180610887	193.66137760070828	23840.047218533273	189.1774193548387	3344
006003	2000	006003	INTEGRATED DEVICE TECH INC	2000	356.46111715991947	1115.8118610409667	4.612	177.1506338051404	179.3104833547791	28345.375960935697	119.61279938338075	3344
006003	2001	006003	INTEGRATED DEVICE TECH INC	2001	518.7412215207652	1109.0700443069823	4.8	218.43576740541417	300.30545411535104	31764.418883155668	95.55417326396743	3344
006003	2002	006003	INTEGRATED DEVICE TECH INC	2002	766.0376921294509	1153.3648777856774	5.0	268.77037151463657	497.26732061481425	34059.6277129837	129.38012894030666	3344
006003	2003	006003	INTEGRATED DEVICE TECH INC	2003	308.8068620675637	1264.948883277354	3.69	163.684670108541	145.1221919590227	37331.59884548152	50.03576734716338	3344
006003	2004	006003	INTEGRATED DEVICE TECH INC	2004	290.32225383504857	1285.563509769791	3.09	165.46853022870985	124.85372360633869	40407.10191055915	47.42133862623239	3344
006003	2005	006003	INTEGRATED DEVICE TECH INC	2005	302.01082347592694	1177.6949667802594	3.15	126.59877951757719	175.41204395834976	43090.198546961474	30.643368929059026	3344
006003	2006	006003	INTEGRATED DEVICE TECH INC	2006	354.6501071285906	1197.8346035145178	2.955	143.11218996259578	211.53791716599483	46689.000254203434	71.6818752789976	3344
006003	2007	006003	INTEGRATED DEVICE TECH INC	2007	499.76137719447763	1258.7346243613197	2.7	271.3403594492737	228.4210177452039	50649.58430392213	25.3956017203603	3344
006003	2008	006003	INTEGRATED DEVICE TECH INC	2008	790.1943045940843	1178.922013287896	2.4	479.16633889238517	311.0279657016991	53492.76274386406	20.358281916003456	3344
006003	2009	006003	INTEGRATED DEVICE TECH INC	2009	781.467	1066.0870747990887	2.353	495.27483099999995	286.19216900000004	54873.0	16.938	3344
006003	2010	006003	INTEGRATED DEVICE TECH INC	2010	670.9339025229126	1014.5457109079274	2.112	446.2197665243693	224.71413599854333	58192.89052542133	16.37566007007847	3344
006003	2011	006003	INTEGRATED DEVICE TECH INC	2011	551.6898465086114	1025.2584084426078	2.004	395.1586489463552	156.53119756225615	60953.890816253	12.499516534519435	3344
006003	2012	006003	INTEGRATED DEVICE TECH INC	2012	643.5771370971889	1048.8784103918479	2.053	416.241745266038	227.33539183115101	62223.95935118233	11.86940804766739	3344
006003	2013	006003	INTEGRATED DEVICE TECH INC	2013	540.3229446644372	1143.5350216970262	1.8	362.1682841256489	178.15466053878828	62682.861773938734	21.019634343206818	3344
006003	2014	006003	INTEGRATED DEVICE TECH INC	2014	497.57054011825613	425.1715207972802	1.748	348.02850402867557	149.54203608958056	64311.75515456021	25.711226392452968	3344
006008	1998	006008	INTEL CORP	1998	13665.846566763588	22731.490770465487	64.5	6468.681633056442	7197.164933707147	20045.981077018307	4199.874842076677	3344
006008	1999	006008	INTEL CORP	1999	17346.318429983767	25825.590232660765	70.2	7796.105533421868	9550.2128965619	23840.047218533273	3920.5069124423962	3344
006008	2000	006008	INTEL CORP	2000	22254.775809165596	28912.45382132381	86.1	9710.96928305124	12543.806526114355	28345.375960935697	7564.9207122859125	3344
006008	2001	006008	INTEL CORP	2001	19618.699824060794	33943.245710990435	83.4	10589.903011665212	9028.796812395583	31764.418883155668	8266.229359873332	3344
006008	2002	006008	INTEL CORP	2002	20671.97034061945	40565.33597818002	78.7	10397.440410906001	10274.529929713448	34059.6277129837	5236.668930730773	3344
006008	2003	006008	INTEL CORP	2003	24505.874222529368	42525.345622119814	79.7	10837.428188137728	13668.44603439164	37331.59884548152	4023.5514224398835	3344
006008	2004	006008	INTEL CORP	2004	28881.271792447253	44576.03686635945	85.0	12654.448825212963	16226.822967234286	40407.10191055915	4168.158006052126	3344
006008	2005	006008	INTEL CORP	2005	33944.44881579983	45150.35761649457	99.9	15041.159545728748	18903.28927007108	43090.198546961474	6157.460814715252	3344
006008	2006	006008	INTEL CORP	2006	32122.235537640267	50023.236570962225	94.1	17688.672785706505	14433.562751933761	46689.000254203434	5999.35635906859	3344
006008	2007	006008	INTEL CORP	2007	36299.07391625476	53369.30278952201	86.3	19009.241236293394	17289.832679961364	50649.58430392213	5071.816927696178	3344
006008	2008	006008	INTEL CORP	2008	36959.172435494016	52083.2390861796	83.9	18426.32945248584	18532.84298300818	53492.76274386406	5163.5915625900425	3344
006008	2009	006008	INTEL CORP	2009	35127.0	53544.74495874579	79.8	17057.1346	18069.8654	54873.0	4515.0	3344
006008	2010	006008	INTEL CORP	2010	44128.715074756714	52629.72541682716	82.5	18451.559876181036	25677.155198575678	58192.89052542133	5139.416670779253	3344
006008	2011	006008	INTEL CORP	2011	55589.41310904992	55556.04468167061	100.1	24785.18308815203	30804.230020897892	60953.890816253	10408.044865596596	3344
006008	2012	006008	INTEL CORP	2012	54864.58965471133	61461.36505551028	105.0	25538.113409378435	29326.476245332895	62223.95935118233	10462.347125629762	3344
006008	2013	006008	INTEL CORP	2013	54071.687970619016	68564.36928379374	107.6	26231.995732370382	27839.69223824863	62682.861773938734	10052.74618012539	3344
006008	2014	006008	INTEL CORP	2014	57055.03303616106	72944.05198366569	106.7	25488.864515997262	31566.1685201638	64311.75515456021	9327.634906862111	3344
006021	1998	006021	INRAD OPTICS INC	1998	2.7833115738115923	7.180314077397646	0.057	1.6068810369669133	1.176430536844679	20045.981077018307	0.11216983694047915	3344
006021	1999	006021	INRAD OPTICS INC	1999	3.6629777187546115	7.3149186763881096	0.057	2.2391695440460375	1.4238081747085736	23840.047218533273	0.37672811059907835	3344
006021	2000	006021	INRAD OPTICS INC	2000	5.21957174436636	8.076289831422203	0.083	2.4115952357385595	2.8079765086278003	28345.375960935697	0.6585584258073292	3344
006021	2003	006021	INRAD OPTICS INC	2003	4.380665880726858	14.05766239258152	0.063	2.4401739908126348	1.9404918899142236	37331.59884548152	0.11115390964617841	3344
006021	2004	006021	INRAD OPTICS INC	2004	7.785760719984465	13.238187649928573	0.092	3.8124967284945996	3.9732639914898646	40407.10191055915	1.0997950086226531	3344
006021	2005	006021	INRAD OPTICS INC	2005	12.051826789414326	15.138880141084588	0.102	6.446635367762129	5.605191421652197	43090.198546961474	0.4804893794913586	3344
006021	2006	006021	INRAD OPTICS INC	2006	12.638450085339723	15.289661428326264	0.089	6.526670479718197	6.1117796056215274	46689.000254203434	1.0246348375844778	3344
006021	2007	006021	INRAD OPTICS INC	2007	14.298430013446206	16.16968619347398	0.098	6.00446754919228	8.293962464253925	50649.58430392213	0.2505477562281912	3344
006021	2008	006021	INRAD OPTICS INC	2008	16.029145689112646	15.771889400921658	0.101	8.643997797356825	7.385147891755821	53492.76274386406	0.7799536995638221	3344
006021	2009	006021	INRAD OPTICS INC	2009	11.051	16.641705069124423	0.081	6.645287	4.405713	54873.0	0.211	3344
006021	2010	006021	INRAD OPTICS INC	2010	11.182147409310701	16.824884792626726	0.083	6.0021263681793355	5.180021041131365	58192.89052542133	0.2743917485071313	3344
006021	2011	006021	INRAD OPTICS INC	2011	13.565097437692378	17.56815793513041	0.081	7.451167914020115	6.113929523672264	60953.890816253	0.2939470121833301	3344
006021	2012	006021	INRAD OPTICS INC	2012	11.729734733550702	18.227689941852084	0.077	7.142145377122698	4.587589356428005	62223.95935118233	0.277047733806465	3344
006021	2013	006021	INRAD OPTICS INC	2013	11.526703461293831	18.935252151315304	0.071	7.544018137425882	3.9826853238679494	62682.861773938734	0.42797612343732405	3344
006021	2014	006021	INRAD OPTICS INC	2014	9.932293741000583	19.730019554658423	0.07	6.840762640033496	3.0915311009670865	64311.75515456021	0.3775361382391493	3344
006109	1998	006109	INTL RECTIFIER CORP	1998	287.0649612749866	602.6465957044782	4.395	161.87216584396603	125.19279543102057	20045.981077018307	106.59676714722588	3344
006109	1999	006109	INTL RECTIFIER CORP	1999	321.8952338792976	755.5218240221703	4.495	178.16996015936252	143.72527371993507	23840.047218533273	82.46198156682027	3344
006109	2000	006109	INTL RECTIFIER CORP	2000	497.0978917153321	794.0547251203852	5.098	245.57544755683128	251.52244415850083	28345.375960935697	73.24167167291976	3344
006109	2001	006109	INTL RECTIFIER CORP	2001	723.4095243727545	852.4737061462649	5.944	378.5792273459793	344.83029702677527	31764.418883155668	111.5482922415743	3344
006109	2002	006109	INTL RECTIFIER CORP	2002	556.2902602919596	922.15717318998	5.9	261.64957132926554	294.64068896269407	34059.6277129837	70.67665824137893	3344
006109	2003	006109	INTL RECTIFIER CORP	2003	702.8277572259034	1042.9434073419493	5.5	397.6324240822797	305.1953331436237	37331.59884548152	78.97320200297145	3344
006109	2004	006109	INTL RECTIFIER CORP	2004	895.337155014479	938.8305540871739	5.8	487.2991295684989	408.03802544598005	40407.10191055915	93.46088352368247	3344
006109	2005	006109	INTL RECTIFIER CORP	2005	1026.7649347356642	1033.1274929117208	6.0	510.0427518556404	516.7221828800238	43090.198546961474	143.01755797093782	3344
006109	2006	006109	INTL RECTIFIER CORP	2006	1063.2222101172968	1211.6620212408093	6.3	555.5642408395977	507.657969277699	46689.000254203434	164.54576598461492	3344
006109	2007	006109	INTL RECTIFIER CORP	2007	1138.6370092608374	1377.247234127968	5.5	665.977785353105	472.65922390773255	50649.58430392213	122.2703481295139	3344
006109	2008	006109	INTL RECTIFIER CORP	2008	968.4058370044053	1470.979262672811	5.1	688.9287680931403	279.4770689112649	53492.76274386406	41.51142110544775	3344
006109	2009	006109	INTL RECTIFIER CORP	2009	721.719	1481.9072124049285	3.939	542.294253	179.42474700000002	54873.0	20.793	3344
006109	2010	006109	INTL RECTIFIER CORP	2010	905.6760475044005	1362.6509216589861	4.534	554.5462156311328	351.12983187326773	58192.89052542133	57.31727779696985	3344
006109	2011	006109	INTL RECTIFIER CORP	2011	1211.2302988501015	1342.3294930875577	4.92	678.4698215958575	532.7604772542439	60953.890816253	141.50551150647843	3344
006109	2012	006109	INTL RECTIFIER CORP	2012	1080.596155230758	1510.4417215465355	4.911	679.628425372597	400.96772985816114	62223.95935118233	121.5243318121009	3344
006109	2013	006109	INTL RECTIFIER CORP	2013	1002.3133424977943	1549.6290432028952	4.162	701.2479492808633	301.065393216931	62682.861773938734	68.14299658369937	3344
006109	2014	006109	INTL RECTIFIER CORP	2014	1130.0419717533161	1507.0280085841634	4.165	688.1059199575176	441.9360517957987	64311.75515456021	40.71759558402717	3344
006185	1998	006185	ISC8 INC	1998	4.845177968614274	10.96741768614087	0.068	5.776423774921588	-0.9312458063073138	20045.981077018307	0.4616674341444984	3344
006185	1999	006185	ISC8 INC	1999	6.551571491810535	11.622005932972124	0.091	9.620433230042792	-3.0688617382322567	23840.047218533273	1.6739631336405532	3344
006185	2000	006185	ISC8 INC	2000	7.106799960407799	13.042987560192616	0.134	13.16697746543931	-6.060177505031509	28345.375960935697	2.693175249084706	3344
006185	2001	006185	ISC8 INC	2001	7.878084480387953	15.497090690208667	0.09	15.778190930999303	-7.90010645061135	31764.418883155668	3.8407600090477265	3344
006185	2002	006185	ISC8 INC	2002	11.849849385958137	17.602578250401283	0.075	12.805843052444581	-0.9559936664864442	34059.6277129837	0.8217439232148226	3344
006185	2003	006185	ISC8 INC	2003	10.278466604333508	17.391411073063566	0.085	10.604609943493635	-0.32614333916012683	37331.59884548152	1.356958124690475	3344
006185	2004	006185	ISC8 INC	2004	11.752091652806739	17.5356816761978	0.092	10.09294283519211	1.6591488176146285	40407.10191055915	1.9154220761613467	3344
006185	2005	006185	ISC8 INC	2005	20.151074042017466	19.808736604353886	0.113	14.84649461011881	5.304579431898657	43090.198546961474	1.956882957443881	3344
006185	2006	006185	ISC8 INC	2006	27.985982496277735	21.40200488824342	0.165	22.843397065766055	5.142585430511678	46689.000254203434	2.303611656129642	3344
006185	2007	006185	ISC8 INC	2007	33.885385300077644	22.06912442396313	0.194	31.382813476507014	2.5025718235706287	50649.58430392213	2.1271200194757767	3344
006185	2008	006185	ISC8 INC	2008	16.398875078665824	23.922189549875597	0.075	17.185533354310884	-0.786658275645057	53492.76274386406	0.8753365723767226	3344
006185	2009	006185	ISC8 INC	2009	11.537	22.780567649122027	0.076	15.857651999999998	-4.320651999999997	54873.0	0.09	3344
006185	2010	006185	ISC8 INC	2010	11.852833471584358	23.27301515494232	0.071	13.834193861654564	-1.9813603900702057	58192.89052542133	1.0284755465627005	3344
006185	2011	006185	ISC8 INC	2011	14.510134961241109	27.663594470046085	0.075	18.63952686356664	-4.1293919023255325	60953.890816253	0.7474376329530071	3344
006185	2012	006185	ISC8 INC	2012	4.315851187476214	30.42119198803599	0.085	14.262921325200827	-9.947070137724612	62223.95935118233	0.41557160070969756	3344
006185	2013	006185	ISC8 INC	2013	0.5139621247871314	13.875064355586066	0.038	13.147709226697307	-12.633747101910176	62682.861773938734	0.1689379434621016	3344
006416	1998	006416	KEY TRONIC CORP	1998	88.45115550862667	130.93312848710278	2.721	28.313930601863174	60.13722490676349	20045.981077018307	8.378496451890948	3344
006416	1999	006416	KEY TRONIC CORP	1999	105.2406669617825	139.552842241449	1.961	51.38748649845065	53.85318046333185	23840.047218533273	2.635944700460829	3344
006416	2000	006416	KEY TRONIC CORP	2000	108.45161503183874	138.38036710600792	2.007	49.66861856214325	58.78299646969548	28345.375960935697	1.6310939324212508	3344
006416	2001	006416	KEY TRONIC CORP	2001	122.61410174904269	144.66489063376332	2.151	56.948623534456026	65.66547821458666	31764.418883155668	0.81429540827867	3344
006416	2002	006416	KEY TRONIC CORP	2002	135.62292422955124	144.57768129034136	1.953	64.76292500193095	70.8599992276203	34059.6277129837	1.2715874800966496	3344
006416	2003	006416	KEY TRONIC CORP	2003	106.42221228505224	128.80552157431322	2.687	1.599827635269751	104.82238464978249	37331.59884548152	2.341935838881858	3344
006416	2011	006416	KEY TRONIC CORP	2011	261.32243486138424	77.43796715865547	1.997	130.17699379240057	131.14544106898364	60953.890816253	3.691742409591955	3344
006416	2012	006416	KEY TRONIC CORP	2012	356.37143474280776	78.74369040942233	2.7	171.20619606471718	185.1652386780906	62223.95935118233	4.415685455942769	3344
006416	2013	006416	KEY TRONIC CORP	2013	370.37382794066355	73.64993386659948	2.584	187.27757237530523	183.09625556535835	62682.861773938734	3.2567481322971807	3344
006416	2014	006416	KEY TRONIC CORP	2014	311.87157256211515	75.59802152754764	3.343	83.46581701949492	228.4057555426202	64311.75515456021	7.165802056602729	3344
006529	1998	006529	LSI CORP	1998	775.3850395052353	2192.540152421742	6.42	488.74588172876366	286.6391577764717	20045.981077018307	388.570483983328	3344
006529	1999	006529	LSI CORP	1999	1233.2560129850965	2829.732644462279	6.3	747.8912203039694	485.36479268112726	23840.047218533273	236.3732718894009	3344
006529	2000	006529	LSI CORP	2000	1806.504338645287	2895.311235872416	7.221	1091.3225273021214	715.1818113431654	28345.375960935697	313.5610895118053	3344
006529	2001	006529	LSI CORP	2001	1319.4871150405843	2914.323129415157	6.737	1107.1483411446397	212.3387738959445	31764.418883155668	253.62135263515043	3344
006529	2002	006529	LSI CORP	2002	1403.3660307407122	2385.6599718985044	5.281	1112.2010836487218	291.16494709199037	34059.6277129837	42.948924940707506	3344
006529	2003	006529	LSI CORP	2003	1376.5356315297367	2164.496543778802	4.722	1091.850602056994	284.6850294727429	37331.59884548152	86.04963407252517	3344
006529	2004	006529	LSI CORP	2004	1435.3795368392612	1310.9574600727703	4.414	1131.9497716278165	303.42976521144476	40407.10191055915	57.24140175056129	3344
006529	2005	006529	LSI CORP	2005	1677.9447635533875	764.9785116489483	4.322	1267.2468207132306	410.6979428401569	43090.198546961474	50.85884830717453	3344
006529	2006	006529	LSI CORP	2006	1799.531539383375	650.9781870413879	4.01	1415.9791643969932	383.5523749863819	46689.000254203434	60.90815659160983	3344
006529	2007	006529	LSI CORP	2007	2465.4309414237828	477.14594305693197	6.193	1992.8958799689412	472.5350614548415	50649.58430392213	104.2998863913008	3344
006529	2008	006529	LSI CORP	2008	2632.4309707363122	649.2180707643207	5.488	2056.2753697293897	576.1556010069227	53492.76274386406	133.72380696891113	3344
006529	2009	006529	LSI CORP	2009	2219.159	637.6295151713992	5.397	1783.7404190000002	435.4185809999999	54873.0	90.004	3344
006529	2010	006529	LSI CORP	2010	2599.841179921905	560.1706955994714	5.718	1948.975592287616	650.865587634289	58192.89052542133	91.1434634555594	3344
006529	2011	006529	LSI CORP	2011	2104.1579592130865	582.753	4.588	1528.289893863433	575.8680653496535	60953.890816253	58.90543415200155	3344
006529	2012	006529	LSI CORP	2012	2577.6688643633706	483.008	5.08	1869.0817193462449	708.5871450171257	62223.95935118233	124.08227938176607	3344
006529	2013	006529	LSI CORP	2013	2431.55276062291	555.8061491388245	5.272	1734.0715402449782	697.4812203779314	62682.861773938734	81.25445808461915	3344
006741	2001	006741	CHINA DISPLAY TECHNOLOGIES	2001	0.8405162854650561	3.7557603686635943	0.028	0.524023833109097	0.31649245235595913	31764.418883155668	0.1051798235693282	3344
006741	2002	006741	CHINA DISPLAY TECHNOLOGIES	2002	0.9986869545068355	1.5528830350362153	0.018	0.7802996833243221	0.21838727118251344	34059.6277129837	0.017815586411161467	3344
006741	2003	006741	CHINA DISPLAY TECHNOLOGIES	2003	0.8065368510915077	1.5663876950916082	0.013	0.5196081141509817	0.286928736940526	37331.59884548152	0.023111208936334126	3344
006848	1998	006848	LGL GROUP INC	1998	267.62963386787203	272.86441613162117	1.966	202.48595652603598	65.14367734183602	20045.981077018307	23.372651813018788	3344
006848	1999	006848	LGL GROUP INC	1999	114.63597462003837	324.1731839466523	0.699	93.77818562785895	20.85778899217942	23840.047218533273	4.372119815668203	3344
006848	2000	006848	LGL GROUP INC	2000	144.64086574944736	81.26956073493132	0.435	128.7037777557821	15.937087993665248	28345.375960935697	4.900082744862451	3344
006848	2001	006848	LGL GROUP INC	2001	104.28685482797877	82.68537651977509	0.499	88.6692705176161	15.617584310362671	31764.418883155668	1.2485862926939608	3344
006848	2002	006848	LGL GROUP INC	2002	20.380010813315828	19.36169459105239	0.178	15.863701243531318	4.516309569784507	34059.6277129837	0.24830473560556293	3344
006848	2003	006848	LGL GROUP INC	2003	22.739948778405626	19.61891489259455	0.204	14.793394853449326	7.946553924956298	37331.59884548152	0.15517526000110052	3344
006848	2004	006848	LGL GROUP INC	2004	28.564674495766038	19.472980104814855	0.355	15.01882276461202	13.545851731154018	40407.10191055915	0.4772286033471079	3344
006848	2005	006848	LGL GROUP INC	2005	40.376461125536586	26.491021268057782	0.355	22.599133597363195	17.777327528173387	43090.198546961474	0.36301290124567404	3344
006848	2006	006848	LGL GROUP INC	2006	44.757962014743796	26.021721542572752	0.386	26.063276682282016	18.69468533246178	46689.000254203434	0.7837885535727263	3344
006848	2007	006848	LGL GROUP INC	2007	37.437266821960876	26.947216161219934	0.303	21.809208757078203	15.628058064882673	50649.58430392213	0.48080824474559763	3344
006848	2008	006848	LGL GROUP INC	2008	39.50892857142857	22.410005277562995	0.28	24.301840780365012	15.207087791063557	53492.76274386406	0.5335479447971624	3344
006848	2009	006848	LGL GROUP INC	2009	31.301	22.880076586030412	0.218	20.319685999999997	10.981314000000001	54873.0	0.325	3344
006848	2010	006848	LGL GROUP INC	2010	47.19687620126651	23.09201010076246	0.233	26.014568960284862	21.18230724098165	58192.89052542133	0.7570448600898189	3344
006848	2011	006848	LGL GROUP INC	2011	36.73292910159668	24.67216728601121	0.199	23.04142517423486	13.691503927361824	60953.890816253	1.6379810481531618	3344
006848	2012	006848	LGL GROUP INC	2012	30.554498421155486	24.262770044718774	0.184	20.11019614700225	10.444302274153236	62223.95935118233	0.8596070096871827	3344
006848	2013	006848	LGL GROUP INC	2013	26.878885492111042	25.29445109277571	0.153	19.87976158722994	6.999123904881102	62682.861773938734	0.42046777039456396	3344
006848	2014	006848	LGL GROUP INC	2014	23.501118225544563	25.155066316899163	0.142	15.841434596570778	7.659683628973783	64311.75515456021	0.24276773681392733	3344
007106	1999	007106	VALPEY-FISHER CORP	1999	8.27858934631843	11.955356198933746	0.109	5.315261029954256	2.963328316364173	23840.047218533273	0.8248847926267281	3344
007106	2000	007106	VALPEY-FISHER CORP	2000	17.4258471081197	12.558098873719638	0.151	10.616413606519517	6.809433501600184	28345.375960935697	1.4463348559899347	3344
007106	2001	007106	VALPEY-FISHER CORP	2001	12.490944305631531	10.676262095361311	0.076	10.637192660821738	1.853751644809794	31764.418883155668	2.460981678353314	3344
007106	2002	007106	VALPEY-FISHER CORP	2002	5.633737545377308	12.502365482873905	0.065	5.998065188846836	-0.3643276434695293	34059.6277129837	0.28393590842788585	3344
007106	2003	007106	VALPEY-FISHER CORP	2003	6.907597869832107	12.747040529695022	0.065	5.8038619456075455	1.1037359242245612	37331.59884548152	0.16948219886645025	3344
007106	2004	007106	VALPEY-FISHER CORP	2004	9.74697544049237	13.180024026085464	0.063	6.597682507788293	3.149292932704078	40407.10191055915	0.152930075163505	3344
007106	2005	007106	VALPEY-FISHER CORP	2005	9.99029559105096	13.263865876259558	0.059	6.483652879411791	3.5066427116391705	43090.198546961474	0.12805994475430482	3344
007106	2006	007106	VALPEY-FISHER CORP	2006	10.696517412935323	13.394542646301698	0.053	7.190660747358101	3.5058566655772228	46689.000254203434	0.3104010298254903	3344
007106	2007	007106	VALPEY-FISHER CORP	2007	12.70666439406852	13.44176364365971	0.055	8.215541730583489	4.49112266348503	50649.58430392213	0.3276393735291731	3344
007106	2008	007106	VALPEY-FISHER CORP	2008	12.803846758967904	13.931747934144957	0.054	8.383220578980492	4.420626179987413	53492.76274386406	0.21361789223722516	3344
007106	2009	007106	VALPEY-FISHER CORP	2009	10.378	15.170750114552167	0.053	7.157731	3.220269	54873.0	0.356	3344
007291	1998	007291	METHODE ELECTRONICS INC	1998	181.66478546498624	205.53084822511525	3.65	70.37531273894294	111.2894727260433	20045.981077018307	24.058658921044245	3344
007291	1999	007291	METHODE ELECTRONICS INC	1999	226.71152427327726	232.22183313230357	3.8	94.53221189316805	132.1793123801092	23840.047218533273	26.74078341013825	3344
007291	2000	007291	METHODE ELECTRONICS INC	2000	269.5456795011383	252.04945436195044	3.8	116.03233363027485	153.51334587086345	28345.375960935697	24.932273896829624	3344
007291	2001	007291	METHODE ELECTRONICS INC	2001	316.8872067063885	273.5831706241733	3.7	150.4581072489909	166.42909945739763	31764.418883155668	27.8986654603031	3344
007291	2002	007291	METHODE ELECTRONICS INC	2002	279.7095852321001	282.77362560192614	3.4	133.4279755928014	146.2816096392987	34059.6277129837	17.345700319567083	3344
007291	2003	007291	METHODE ELECTRONICS INC	2003	261.47160453676975	241.2770599916644	3.225	114.93304605878284	146.53855847798692	37331.59884548152	17.943102404666263	3344
007291	2004	007291	METHODE ELECTRONICS INC	2004	307.37713914240123	247.53977788129149	3.175	137.3351161278884	170.0420230145128	40407.10191055915	25.131509018535994	3344
007291	2005	007291	METHODE ELECTRONICS INC	2005	315.610984341805	281.78013427102127	3.1	133.81444470672577	181.79653963507928	43090.198546961474	20.430323748240497	3344
007291	2006	007291	METHODE ELECTRONICS INC	2006	358.10455024149326	300.71723773367296	3.225	154.8071004466717	203.29744979482155	46689.000254203434	19.70579380651323	3344
007291	2007	007291	METHODE ELECTRONICS INC	2007	400.25093271215655	309.6879317062803	3.535	170.48215536996005	229.76877734219647	50649.58430392213	18.9219345938489	3344
007291	2008	007291	METHODE ELECTRONICS INC	2008	442.5178964757709	310.1244239631336	3.425	201.20752045311522	241.3103760226557	53492.76274386406	10.598428169741771	3344
007291	2009	007291	METHODE ELECTRONICS INC	2009	552.952	329.7122065674484	3.58	270.98466	281.96734	54873.0	20.018	3344
007291	2010	007291	METHODE ELECTRONICS INC	2010	433.8175491128331	348.63605519113327	2.876	220.9513261982318	212.86622291460128	58192.89052542133	16.842520850811823	3344
007291	2011	007291	METHODE ELECTRONICS INC	2011	387.0186022092054	318.1467011500578	2.315	211.30014721172756	175.71845499747783	60953.890816253	9.06884548443241	3344
007291	2012	007291	METHODE ELECTRONICS INC	2012	440.44619071618854	308.9748528036098	2.743	233.71781574318834	206.72837497300017	62223.95935118233	14.443485108684307	3344
007291	2013	007291	METHODE ELECTRONICS INC	2013	477.1281725107204	337.3150870843701	3.143	251.88803011961676	225.24014239110363	62682.861773938734	24.16188009160191	3344
007291	2014	007291	METHODE ELECTRONICS INC	2014	530.8620038193275	314.4882853677613	3.96	232.98003533388479	297.88196848544266	64311.75515456021	35.58901175992763	3344
007343	1998	007343	MICRON TECHNOLOGY INC	1998	1566.6335505817856	4955.106340288924	11.4	1291.1920230113446	275.4415275704409	20045.981077018307	834.8978073748716	3344
007343	1999	007343	MICRON TECHNOLOGY INC	1999	2221.631990556293	5727.401995636078	15.7	1391.1531946288917	830.4787959274015	23840.047218533273	926.1520737327189	3344
007343	2000	007343	MICRON TECHNOLOGY INC	2000	4841.004322148537	7382.45148937737	18.8	2175.675343957241	2665.328978191296	28345.375960935697	1346.814322795643	3344
007343	2001	007343	MICRON TECHNOLOGY INC	2001	2909.57611957952	8513.263491758375	18.1	1619.2772447033428	1290.2988748761773	31764.418883155668	1683.5557566161501	3344
007343	2002	007343	MICRON TECHNOLOGY INC	2002	1999.6910481192556	9680.729222013626	18.7	1231.1625086892718	768.5285394299838	34059.6277129837	846.1290071150999	3344
007343	2003	007343	MICRON TECHNOLOGY INC	2003	2513.3542013903	10184.101382488478	16.6	1780.8808488149925	732.4733525753079	37331.59884548152	904.0884829142134	3344
007343	2004	007343	MICRON TECHNOLOGY INC	2004	3718.2875041157645	10767.741935483871	17.9	1776.058574721183	1942.2289293945812	40407.10191055915	1172.1385264482262	3344
007343	2005	007343	MICRON TECHNOLOGY INC	2005	4266.617707486383	11587.79456604287	18.8	2164.087042428375	2102.5306650580083	43090.198546961474	1126.9275138378823	3344
007343	2006	007343	MICRON TECHNOLOGY INC	2006	4786.741475106221	12501.388526801402	23.5	2350.2610124559687	2436.480462650252	46689.000254203434	1417.0481796381077	3344
007343	2007	007343	MICRON TECHNOLOGY INC	2007	5433.403405109558	14852.974440171907	23.5	2801.932181883605	2631.471223225953	50649.58430392213	3654.7512780978655	3344
007343	2008	007343	MICRON TECHNOLOGY INC	2008	5743.588735053492	18481.443953278627	22.8	3741.2287602265574	2002.3599748269348	53492.76274386406	2512.7425556648486	3344
007343	2009	007343	MICRON TECHNOLOGY INC	2009	4803.0	20264.128102129533	18.2	3131.3114	1671.6886	54873.0	488.0	3344
007343	2010	007343	MICRON TECHNOLOGY INC	2010	8580.330588544723	18122.756212106422	25.9	3463.771420478686	5116.559168066036	58192.89052542133	608.0047376992547	3344
007343	2011	007343	MICRON TECHNOLOGY INC	2011	9046.829800595024	18852.32889180522	26.1	4902.890703013208	4143.939097581816	60953.890816253	2465.6739508799074	3344
007343	2012	007343	MICRON TECHNOLOGY INC	2012	8528.846054945845	20509.306840242094	27.4	5148.380115816216	3380.4659391296295	62223.95935118233	1612.000341565699	3344
007343	2013	007343	MICRON TECHNOLOGY INC	2013	9307.741233919449	21619.06838165831	30.9	5146.749215207535	4160.992018711914	62682.861773938734	1167.548898149191	3344
007343	2014	007343	MICRON TECHNOLOGY INC	2014	16704.962062028328	21717.690782438985	30.4	9172.032719585797	7532.929342442531	64311.75515456021	2453.5233629331515	3344
007344	2014	007344	MICROPAC INDUSTRIES INC	2014	19.517375897388764	15.857913098636223	0.116	10.224139374814905	9.293236522573856	64311.75515456021	0.4550741226207839	3344
007346	1998	007346	MICROSEMI CORP	1998	85.67356556204585	102.69841038567453	1.75	37.47288728914504	48.20067827290082	20045.981077018307	6.972240917195046	3344
007346	1999	007346	MICROSEMI CORP	1999	109.2406669617825	108.89932697700506	1.884	51.55104382470119	57.689623137081306	23840.047218533273	9.138248847926267	3344
007346	2000	007346	MICROSEMI CORP	2000	163.36863637863343	133.16991556748764	2.465	73.76717146722096	89.60146491141245	28345.375960935697	12.15556034140757	3344
007346	2001	007346	MICROSEMI CORP	2001	179.92223191448468	132.8864867576244	2.429	75.02350710409983	104.89872481038482	31764.418883155668	18.01402397647591	3344
007346	2002	007346	MICROSEMI CORP	2002	164.23881980381555	148.04546068215572	1.886	84.93941299142656	79.29940681238898	34059.6277129837	22.096894520593704	3344
007346	2003	007346	MICROSEMI CORP	2003	160.47075084353023	146.07818828002314	1.497	91.77181836660026	68.69893247692995	37331.59884548152	12.37330105100974	3344
007346	2004	007346	MICROSEMI CORP	2004	206.67893657078693	139.2145749943915	1.585	106.58464545324067	100.09429111754625	40407.10191055915	11.273441143613272	3344
007346	2005	007346	MICROSEMI CORP	2005	260.0431889911786	135.27073732718895	1.443	133.96268523618434	126.08050375499428	43090.198546961474	12.188978377977923	3344
007346	2006	007346	MICROSEMI CORP	2006	336.3447361731488	144.88512066014533	2.049	138.82056596579147	197.52417020735734	46689.000254203434	14.385374817029493	3344
007346	2007	007346	MICROSEMI CORP	2007	418.77544836467627	170.74869938927844	2.3	201.99543586538644	216.78001249928982	50649.58430392213	18.993954394222186	3344
007346	2008	007346	MICROSEMI CORP	2008	505.49382473253615	186.64276408823173	2.3	249.71090308370046	255.7829216488357	53492.76274386406	25.039991256569994	3344
007346	2009	007346	MICROSEMI CORP	2009	452.972	203.42953828132627	2.2	243.3234	209.6486	54873.0	12.625	3344
007346	2010	007346	MICROSEMI CORP	2010	524.2762053128857	210.4173060844349	2.25	287.51643838387923	236.75976692900645	58192.89052542133	16.01342348122193	3344
007346	2011	007346	MICROSEMI CORP	2011	860.4721069807184	227.15334226125594	2.7	495.7298304491502	364.74227653156817	60953.890816253	24.97195900212725	3344
007346	2012	007346	MICROSEMI CORP	2012	1041.4150972506504	236.48196170775086	3.2	615.2276724643347	426.1874247863159	62223.95935118233	46.56584153249143	3344
007346	2013	007346	MICROSEMI CORP	2013	1001.1941155953137	368.85851058579675	3.1	586.4408379326618	414.75327766265207	62682.861773938734	35.033036753388146	3344
007346	2014	007346	MICROSEMI CORP	2014	1162.4061762813637	414.5107329336685	3.4	716.749486841702	445.65668943966176	64311.75515456021	36.40962209463327	3344
007506	1998	007506	MOLEX INC	1998	844.1870868074881	1786.2839841039552	12.455	379.9315251257458	464.2555616817423	20045.981077018307	268.2488517350903	3344
007506	1999	007506	MOLEX INC	1999	1010.2694407554965	1814.293632298293	14.7	426.55292902464214	583.7165117308543	23840.047218533273	263.5046082949309	3344
007506	2000	007506	MOLEX INC	2000	1462.9951499554588	2193.0276886035313	17.65	624.6227853112938	838.372364644165	28345.375960935697	382.344740033778	3344
007506	2001	007506	MOLEX INC	2001	1748.7092863373596	2578.676849150506	16.845	813.6760907491462	935.0331955882134	31764.418883155668	425.5824474100882	3344
007506	2002	007506	MOLEX INC	2002	1321.9255425967406	2813.360219667067	16.64	487.53218506217644	834.3933575345642	34059.6277129837	192.07095057288248	3344
007506	2003	007506	MOLEX INC	2003	1498.514573763161	3046.3873240300945	17.275	551.0037806414895	947.5107931216714	37331.59884548152	188.40367578275465	3344
007506	2004	007506	MOLEX INC	2004	1896.8103877683689	3133.17554904128	21.225	659.5382533960336	1237.2721343723354	40407.10191055915	205.7766353214243	3344
007506	2005	007506	MOLEX INC	2005	2228.2127276383317	3342.9321447450625	27.525	615.0631005149457	1613.149627123386	43090.198546961474	244.3669499507869	3344
007506	2006	007506	MOLEX INC	2006	2597.676762174529	3156.9409514363647	32.4	587.2609579838041	2010.4158041907249	46689.000254203434	287.33688373976145	3344
007506	2007	007506	MOLEX INC	2007	3092.508001439312	3261.4974082863996	33.2	846.2665000094688	2246.241501429843	50649.58430392213	301.124928994563	3344
007506	2008	007506	MOLEX INC	2008	3272.83963971051	3393.3456221198157	32.16	963.2650251730653	2309.5746145374446	53492.76274386406	233.11772829791252	3344
007506	2009	007506	MOLEX INC	2009	2581.841	3677.147682577106	25.24	879.1714799999997	1702.6695200000001	54873.0	177.943	3344
007506	2010	007506	MOLEX INC	2010	3042.0691120237925	3635.692151097037	35.519	448.33998219596555	2593.729129827827	58192.89052542133	226.49854414449985	3344
007506	2011	007506	MOLEX INC	2011	3692.990456974027	3656.437457588781	33.613	937.3508786378281	2755.6395783361986	60953.890816253	253.57377683233415	3344
007506	2012	007506	MOLEX INC	2012	3588.8514034744862	3995.233217160864	34.226	801.1971488228095	2787.6542546516766	62223.95935118233	215.47197738076034	3344
007506	2013	007506	MOLEX INC	2013	3714.117031535321	4027.2422585709674	35.983	840.4939924906138	2873.623039044707	62682.861773938734	246.7742238240042	3344
007772	1998	007772	NATIONAL SEMICONDUCTOR CORP	1998	1304.1669050678015	3175.045732668895	12.4	829.3323901317535	474.8345149360479	20045.981077018307	700.1759295337278	3344
007772	1999	007772	NATIONAL SEMICONDUCTOR CORP	1999	1497.2406669617824	2861.8756692070287	13.0	985.3427770399882	511.8978899217942	23840.047218533273	716.5898617511521	3344
007772	2000	007772	NATIONAL SEMICONDUCTOR CORP	2000	1291.2336269754858	3686.421548956661	11.6	917.0282094427398	374.2054175327461	28345.375960935697	343.78790111422194	3344
007772	2001	007772	NATIONAL SEMICONDUCTOR CORP	2001	1581.900439108772	2846.324729678314	10.5	841.496148557742	740.4042905510298	31764.418883155668	192.1510970368695	3344
007772	2002	007772	NATIONAL SEMICONDUCTOR CORP	2002	1631.7293581524677	2826.687285982547	10.3	881.826600756932	749.9027573955358	34059.6277129837	253.42671669877186	3344
007772	2003	007772	NATIONAL SEMICONDUCTOR CORP	2003	1215.333956664905	2906.3145754240954	10.1	771.6967356396599	443.637221025245	37331.59884548152	151.87365872448137	3344
007772	2004	007772	NATIONAL SEMICONDUCTOR CORP	2004	1412.0239431982236	3015.4522135081065	9.8	794.7539405810193	617.2700026172042	40407.10191055915	185.79377216672634	3344
007772	2005	007772	NATIONAL SEMICONDUCTOR CORP	2005	1733.7669717872723	3079.917343457158	9.7	807.2285606875267	926.5384110997455	43090.198546961474	227.86203393059364	3344
007772	2006	007772	NATIONAL SEMICONDUCTOR CORP	2006	1736.8449722191958	3212.432120716998	8.5	771.2990703417219	965.545901877474	46689.000254203434	100.28340963592763	3344
007772	2007	007772	NATIONAL SEMICONDUCTOR CORP	2007	2043.5391928488912	3203.7820173963187	8.5	819.02874836657	1224.5104444823212	50649.58430392213	165.64554085855718	3344
007772	2008	007772	NATIONAL SEMICONDUCTOR CORP	2008	1897.714757709251	3353.584447144593	7.6	859.5814977973569	1038.1332599118941	53492.76274386406	105.91473168599163	3344
007772	2009	007772	NATIONAL SEMICONDUCTOR CORP	2009	1885.9	3334.109686435068	7.3	816.7271000000003	1069.1728999999998	54873.0	111.3	3344
007772	2010	007772	NATIONAL SEMICONDUCTOR CORP	2010	1477.3302041394381	3219.6180342739463	5.8	687.5282740202724	789.8019301191657	58192.89052542133	82.61363075556433	3344
007772	2011	007772	NATIONAL SEMICONDUCTOR CORP	2011	1461.2050772604207	3141.678370786517	5.8	654.7133489123834	806.4917283480373	60953.890816253	41.86811061690195	3344
007772	2012	007772	NATIONAL SEMICONDUCTOR CORP	2012	1563.827489380085	2757.5742375601926	5.7	621.0184832807054	942.8090060993796	62223.95935118233	94.87936089262502	3344
008062	1998	008062	OAK INDUSTRIES INC	1998	180.94177984218712	201.03576610105344	3.875	63.81298341248249	117.12879642970464	20045.981077018307	19.876495105852904	3344
008348	1998	008348	PARK ELECTROCHEMICAL CORP	1998	173.98428112955327	208.5179472798654	2.21	111.01039255564282	62.973888573910436	20045.981077018307	22.121072579788176	3344
008348	1999	008348	PARK ELECTROCHEMICAL CORP	1999	222.02036299247456	223.38616209805667	2.38	137.1529703408588	84.86739265161576	23840.047218533273	21.05299539170507	3344
008348	2000	008348	PARK ELECTROCHEMICAL CORP	2000	255.78804975419843	255.4544881095061	2.68	157.96358837309054	97.8244613811079	28345.375960935697	27.62884961971368	3344
008348	2001	008348	PARK ELECTROCHEMICAL CORP	2001	314.370093292133	281.52043836996916	2.85	191.23212886437895	123.13796442775407	31764.418883155668	31.360551911332276	3344
008348	2003	008348	PARK ELECTROCHEMICAL CORP	2003	187.0482539940648	295.02156902086676	1.7	128.713199723566	58.335054270498794	37331.59884548152	28.37836350630056	3344
008348	2004	008348	PARK ELECTROCHEMICAL CORP	2004	183.01518822764612	324.2203321182665	1.4	116.37407448056938	66.64111374707673	40407.10191055915	7.015260469202486	3344
008348	2005	008348	PARK ELECTROCHEMICAL CORP	2005	169.81491681310706	216.27525297250068	1.2	103.49236324214685	66.32255357096021	43090.198546961474	4.772085048736864	3344
008348	2006	008348	PARK ELECTROCHEMICAL CORP	2006	191.73021752551114	197.06469247753654	1.03	119.58927079928823	72.14094672622291	46689.000254203434	3.454898418927196	3344
008348	2007	008348	PARK ELECTROCHEMICAL CORP	2007	210.45300456413463	198.9467842678852	0.95	125.29539041342349	85.15761415071113	50649.58430392213	4.3820498255294975	3344
008348	2008	008348	PARK ELECTROCHEMICAL CORP	2008	253.0846837633732	200.5334230381085	0.95	156.6236626809314	96.46102108244179	53492.76274386406	4.76218863950242	3344
008348	2009	008348	PARK ELECTROCHEMICAL CORP	2009	241.852	210.49375897492544	0.87	150.03149000000002	91.82050999999998	54873.0	4.525	3344
008348	2010	008348	PARK ELECTROCHEMICAL CORP	2010	202.38128957857043	213.5547455110031	0.615	139.96248002104116	62.41880955752927	58192.89052542133	12.065340768889108	3344
008348	2011	008348	PARK ELECTROCHEMICAL CORP	2011	180.86041651653818	204.99031601657308	0.612	108.3709735533617	72.48944296317649	60953.890816253	3.3088377489847227	3344
008348	2012	008348	PARK ELECTROCHEMICAL CORP	2012	217.69745842033262	208.7425531393268	0.614	129.37006263949888	88.32739578083374	62223.95935118233	3.5095875594181996	3344
008348	2013	008348	PARK ELECTROCHEMICAL CORP	2013	198.25396499723013	217.0696227929374	0.613	126.60546379695931	71.64850120027081	62682.861773938734	3.7485452565979656	3344
008348	2014	008348	PARK ELECTROCHEMICAL CORP	2014	180.15787914994434	222.08099766958492	0.535	116.92844377725356	63.22943537269077	64311.75515456021	1.3356840880979195	3344
008365	1999	008365	PARLEX CORP	1999	39.57326250553342	61.27518832048723	1.115	8.57077467906153	31.00248782647189	23840.047218533273	14.785714285714285	3344
008365	2000	008365	PARLEX CORP	2000	67.20050150120426	75.19473868628877	1.85	4.279520934375927	62.920980566828334	28345.375960935697	11.77244029334754	3344
008365	2001	008365	PARLEX CORP	2001	76.60008575188137	103.88191509493471	1.74	25.237621420228578	51.36246433165279	31764.418883155668	8.268491291562995	3344
008365	2002	008365	PARLEX CORP	2002	67.2402873252491	112.80347110754413	1.992	7.7738286861821235	59.46645863906697	34059.6277129837	5.8390584462581705	3344
008365	2003	008365	PARLEX CORP	2003	67.336883613155	117.16558047056223	1.64	10.972608642627764	56.364274970527234	37331.59884548152	2.469597754911132	3344
008365	2004	008365	PARLEX CORP	2004	80.65970434033787	107.73223124609544	0.585	57.03590213344365	23.62380220689422	40407.10191055915	2.686580114751787	3344
008703	1998	008703	POWER DESIGNS INC	1998	1.3534249140455545	1.006775914267865	0.023	2.636423358803244	-1.2829984447576894	20045.981077018307	0.03542205377067762	3344
008703	1999	008703	POWER DESIGNS INC	1999	1.6975062712114504	0.9863520592051516	0.026	0.9607991736756677	0.7367070975357827	23840.047218533273	0.010368663594470045	3344
008703	2000	008703	POWER DESIGNS INC	2000	2.1795506285261803	1.0395766452648474	0.029	1.0467359530172553	1.132814675508925	28345.375960935697	0.026070299128345218	3344
009186	1998	009186	ROBINSON NUGENT INC	1998	38.566888423067525	80.92773779682487	0.674	22.178958975932755	16.387929447134766	20045.981077018307	9.230987212638588	3344
009186	1999	009186	ROBINSON NUGENT INC	1999	41.41065368157001	79.59376774112157	0.722	19.998641286705027	21.412012394864988	23840.047218533273	6.642857142857143	3344
009186	2000	009186	ROBINSON NUGENT INC	2000	61.27288924081956	77.68750394247147	0.826	29.757064898215056	31.5158243426045	28345.375960935697	5.618716207791619	3344
009216	1998	009216	ROGERS CORP	1998	112.65051780726441	175.27675834050717	1.121	75.55137293046143	37.09914487680298	20045.981077018307	34.19999291558925	3344
009216	1999	009216	ROGERS CORP	1999	146.28242585214696	201.71340437464949	1.197	97.25068496384831	49.03174088829865	23840.047218533273	15.692396313364055	3344
009216	2000	009216	ROGERS CORP	2000	163.78963344221188	207.15276967173781	1.358	97.5886713517437	66.20096209046818	28345.375960935697	25.78012536413407	3344
009216	2001	009216	ROGERS CORP	2001	159.7032689208569	217.3181331485797	1.376	94.74005056404039	64.96321835681653	31764.418883155668	20.39357611400136	3344
009216	2002	009216	ROGERS CORP	2002	169.48945701706958	236.34254614767252	1.251	103.79057156097936	65.69888545609022	34059.6277129837	25.25582068612277	3344
009216	2003	009216	ROGERS CORP	2003	197.83649741859423	233.40083704603754	1.197	124.5429066222204	73.29359079637385	37331.59884548152	19.755681505530184	3344
009216	2004	009216	ROGERS CORP	2004	308.1563906219659	289.70384280226324	1.77	189.5328965697738	118.6234940521921	40407.10191055915	30.511176910812484	3344
009216	2005	009216	ROGERS CORP	2005	311.3384215909985	302.2718535249171	2.3	173.55408678014712	137.78433481085142	43090.198546961474	30.282472721115074	3344
009216	2006	009216	ROGERS CORP	2006	412.68293568653087	297.9431594110493	2.5	227.8157569815158	184.86717870501508	46689.000254203434	23.953823953823957	3344
009216	2007	009216	ROGERS CORP	2007	408.4559589417268	326.28801843317973	2.1	251.1505975039297	157.30536143779707	50649.58430392213	31.43410695447537	3344
009216	2008	009216	ROGERS CORP	2008	359.2688011327879	348.6607800686896	1.96	218.76769981120202	140.50110132158588	53492.76274386406	20.8689777141892	3344
009216	2009	009216	ROGERS CORP	2009	291.821	351.64329337254014	1.735	181.314345	110.50665500000002	54873.0	12.087	3344
009216	2010	009216	ROGERS CORP	2010	383.5838711635341	334.96154716127575	1.94	225.9074594857062	157.6764116778279	58192.89052542133	12.443369688594975	3344
009216	2011	009216	ROGERS CORP	2011	569.441727833311	342.906044908924	2.6	323.0957699791021	246.34595785420893	60953.890816253	20.611100367433764	3344
009216	2012	009216	ROGERS CORP	2012	513.0072102280325	385.548218998096	2.4	290.9029756333378	222.10423459469465	62223.95935118233	22.556619258612674	3344
009216	2013	009216	ROGERS CORP	2013	551.3880054986766	390.2404666263138	2.5	303.81419397197317	247.57381152670345	62682.861773938734	15.822915493486505	3344
009216	2014	009216	ROGERS CORP	2014	623.8687540210165	390.6569157661901	2.8	326.9846716297498	296.8840823912666	64311.75515456021	26.542913582070263	3344
009313	1998	009313	SCI SYSTEMS INC	1998	3540.071156236834	818.6967766353373	22.324	2904.98112591221	635.0900303246244	20045.981077018307	279.5968970280897	3344
009313	1999	009313	SCI SYSTEMS INC	1999	3960.9178102405194	1071.246739566613	25.235	3147.5939884904824	813.323821750037	23840.047218533273	155.14976958525344	3344
009313	2000	009313	SCI SYSTEMS INC	2000	5505.018311392656	1152.3731888499349	31.707	4294.008451615032	1211.009859777624	28345.375960935697	317.55211226097504	3344
009313	2001	009313	SCI SYSTEMS INC	2001	6441.694634593491	1417.3521361856722	36.433	4887.901165782042	1553.7934688114497	31764.418883155668	253.77968785342682	3344
009599	1998	009599	SEMTECH CORP	1998	34.00883211185261	22.58553000560853	0.503	17.071714355562722	16.93711775628989	20045.981077018307	4.14674176142066	3344
009599	1999	009599	SEMTECH CORP	1999	60.680537110816	25.302517411773863	0.586	31.60978249963111	29.070754611184892	23840.047218533273	7.133640552995392	3344
009599	2000	009599	SEMTECH CORP	2000	75.56765317232505	33.75638680375955	0.572	42.82039526213337	32.747257910191685	28345.375960935697	6.336216179454337	3344
009599	2001	009599	SEMTECH CORP	2001	128.45631828732795	35.46299247346098	0.731	70.0435124266304	58.41280586069754	31764.418883155668	16.974666365075777	3344
009599	2002	009599	SEMTECH CORP	2002	198.25828377230246	54.03733568982658	0.777	105.73154475940372	92.52673901289876	34059.6277129837	25.23911857386231	3344
009599	2003	009599	SEMTECH CORP	2003	155.46160413024919	77.32398191113788	0.577	89.96826537664133	65.49333875360787	37331.59884548152	22.90430858966599	3344
009599	2004	009599	SEMTECH CORP	2004	162.9066164613709	93.91820276497695	0.555	95.16082720541675	67.74578925595414	40407.10191055915	10.752828121780063	3344
009599	2005	009599	SEMTECH CORP	2005	167.9291141011182	97.20651436326624	0.587	97.17482011872603	70.75429398239217	43090.198546961474	7.932308148210865	3344
009599	2006	009599	SEMTECH CORP	2006	230.24657733231652	102.66681746211265	0.613	129.25087064676615	100.99570668555036	46689.000254203434	17.15303082209557	3344
009599	2007	009599	SEMTECH CORP	2007	226.63295646080715	110.78733757195828	0.659	135.14075810086547	91.49219835994167	50649.58430392213	10.715734804836485	3344
009599	2008	009599	SEMTECH CORP	2008	248.32638451856513	132.14711220479018	0.689	175.98273285084957	72.34365166771555	53492.76274386406	3.2281141017616024	3344
009599	2009	009599	SEMTECH CORP	2009	284.79	111.44885269355638	0.781	187.63318700000002	97.156813	54873.0	3.765	3344
009599	2010	009599	SEMTECH CORP	2010	298.23780524814373	102.9857480878226	0.827	196.1094118599146	102.12839338822913	58192.89052542133	8.939446281399595	3344
009599	2011	009599	SEMTECH CORP	2011	294.999948527368	110.2437682275904	0.915	196.69015534440342	98.3097931829646	60953.890816253	8.394894604525238	3344
009599	2012	009599	SEMTECH CORP	2012	467.484031556319	119.81290926099157	0.982	298.16908344733235	169.31494810898658	62223.95935118233	24.22934239114965	3344
009599	2013	009599	SEMTECH CORP	2013	493.0353515665073	141.84067649517922	0.929	311.59158169022754	181.44376987627976	62682.861773938734	20.238765626759772	3344
009599	2014	009599	SEMTECH CORP	2014	591.1042349601217	157.33384727744865	1.433	368.03038305607464	223.07385190404705	64311.75515456021	21.4761755312275	3344
009650	1998	009650	SHELDAHL INC	1998	60.880714475196754	199.13076389326943	0.922	42.19546222945806	18.685252245738695	20045.981077018307	27.473344904537566	3344
009650	1999	009650	SHELDAHL INC	1999	72.05902316659288	212.35623858411537	0.847	46.6931226206286	25.365900545964287	23840.047218533273	6.383640552995392	3344
009650	2000	009650	SHELDAHL INC	2000	90.23128443696594	199.80939004815409	0.808	62.040682305585804	28.190602131380125	28345.375960935697	2.67050542375571	3344
009719	1998	009719	SILICONIX INC	1998	146.86168746391476	347.47286097817204	1.642	86.64310153807745	60.2185859258373	20045.981077018307	42.02590532865763	3344
009719	1999	009719	SILICONIX INC	1999	226.24051940386602	398.7421939065161	1.752	110.97829009886377	115.26222930500224	23840.047218533273	38.98041474654378	3344
009719	2000	009719	SILICONIX INC	2000	312.21419380382065	421.03420041569564	1.893	144.32432082879671	167.88987297502393	28345.375960935697	76.96972444827313	3344
009719	2001	009719	SILICONIX INC	2001	225.8867188077531	493.64842495987153	1.631	133.21818013809008	92.66853866966305	31764.418883155668	33.32051572042524	3344
009719	2002	009719	SILICONIX INC	2002	288.0543755310111	499.95954791733067	1.735	156.454549316444	131.59982621456706	34059.6277129837	24.98970036410605	3344
009719	2003	009719	SILICONIX INC	2003	318.7641774055856	522.7254317169262	1.731	184.0517126712468	134.71246473433877	37331.59884548152	29.696802949430477	3344
009719	2004	009719	SILICONIX INC	2004	393.5355053314984	526.3154018925586	2.033	217.894574788724	175.6409305427744	40407.10191055915	63.06901376370677	3344
009799	1998	009799	SOLITRON DEVICES INC	1998	3.723739031380525	1.8032704654895664	0.105	1.261569390334611	2.462169641045914	20045.981077018307	0.14286895020839976	3344
009799	1999	009799	SOLITRON DEVICES INC	1999	4.639220894200974	1.911054450954914	0.116	1.4594327873690423	3.1797881068319316	23840.047218533273	0.13133640552995393	3344
009799	2000	009799	SOLITRON DEVICES INC	2000	5.212973044310271	2.0507980092672042	0.105	1.6916559437790764	3.5213171005311947	28345.375960935697	0.261836482549902	3344
009799	2001	009799	SOLITRON DEVICES INC	2001	5.891745642178098	2.3339625879526342	0.092	2.3691559353608227	3.5225897068172745	31764.418883155668	0.05541732639674282	3344
009799	2002	009799	SOLITRON DEVICES INC	2002	6.171313817872867	2.3940278016131797	0.09	2.576094848227389	3.5952189696454777	34059.6277129837	0.18038281241300985	3344
009799	2003	009799	SOLITRON DEVICES INC	2003	5.202650514248546	2.6296649277688604	0.088	2.090647587300297	3.112002926948249	37331.59884548152	0.3158531887965663	3344
009799	2004	009799	SOLITRON DEVICES INC	2004	6.202774236578385	2.922356517688592	0.086	2.2684863272180813	3.934287909360304	40407.10191055915	0.28959099339472233	3344
009799	2005	009799	SOLITRON DEVICES INC	2005	6.723144578207919	2.003019256968224	0.09	2.5731284041930045	4.150016174014915	43090.198546961474	0.18944405050430219	3344
009799	2006	009799	SOLITRON DEVICES INC	2006	7.312888114173657	2.138311312623239	0.091	2.4931392308530342	4.819748883320623	46689.000254203434	0.24915132828801895	3344
009799	2007	009799	SOLITRON DEVICES INC	2007	7.899172395507832	2.3640552995391704	0.089	2.4662225631119448	5.432949832395887	50649.58430392213	0.13896778381887528	3344
009799	2008	009799	SOLITRON DEVICES INC	2008	7.630585273757079	1.784664103144085	0.081	2.7076777847702953	4.922907488986784	53492.76274386406	0.12022216260792672	3344
009799	2009	009799	SOLITRON DEVICES INC	2009	7.792	1.8940195303366034	0.083	2.308541	5.483459	54873.0	0.252	3344
009799	2010	009799	SOLITRON DEVICES INC	2010	8.557063952900236	2.181295861216582	0.081	2.698316709490764	5.858747243409472	58192.89052542133	0.21813156985638849	3344
009799	2011	009799	SOLITRON DEVICES INC	2011	7.950462738961694	2.399163594343257	0.079	2.1550664511679134	5.79539628779378	60953.890816253	0.16921291819764067	3344
009799	2012	009799	SOLITRON DEVICES INC	2012	9.188155066188042	2.5928575359049137	0.085	2.3624451004391958	6.825709965748845	62223.95935118233	0.3548488097384176	3344
009799	2013	009799	SOLITRON DEVICES INC	2013	8.513715915386035	2.9208165960490837	0.084	2.276854264552001	6.236861650834035	62682.861773938734	0.14172016368209633	3344
009799	2014	009799	SOLITRON DEVICES INC	2014	8.602677614043687	3.0869971936389153	0.084	2.3345036406155857	6.268173973428101	64311.75515456021	0.19753724592464048	3344
009922	2000	009922	SPARTON CORP	2000	106.84219208815863	50.84500022654162	1.4	74.60265927612261	32.23953281203602	28345.375960935697	2.7181120569466013	3344
009922	2001	009922	SPARTON CORP	2001	138.6962757070834	43.20233955958061	1.3	94.41008619542558	44.286189511657824	31764.418883155668	0.7045917213300158	3344
009922	2002	009922	SPARTON CORP	2002	115.60361473700472	42.35243764834053	1.2	70.33953811693827	45.26407662006644	34059.6277129837	0.777204957186919	3344
009922	2003	009922	SPARTON CORP	2003	138.1039879669905	44.79798388183607	1.2	87.2050083336721	50.89897963331841	37331.59884548152	0.8066912452539482	3344
009922	2004	009922	SPARTON CORP	2004	135.9291497463	47.6850813236119	1.2	90.32039646424137	45.608753282058636	40407.10191055915	6.628054534214037	3344
009922	2005	009922	SPARTON CORP	2005	146.140530332835	53.62731351654515	1.1	88.56829368514003	57.57223664769498	43090.198546961474	6.592441288219543	3344
009922	2006	009922	SPARTON CORP	2006	155.068634927552	59.404059189779254	1.2	96.80666013000692	58.261974797545115	46689.000254203434	1.0661600589658142	3344
009922	2007	009922	SPARTON CORP	2007	189.46461375300646	60.36600391683851	1.2	134.38365244398997	55.08096130901651	50649.58430392213	2.522721739836079	3344
009922	2008	009922	SPARTON CORP	2008	225.97348961611075	58.28305095421049	1.1	170.81989458779105	55.15359502831969	53492.76274386406	1.2707780659135393	3344
009922	2009	009922	SPARTON CORP	2009	221.871	58.49493736056289	0.865	174.776855	47.094145	54873.0	1.226	3344
009922	2010	009922	SPARTON CORP	2010	175.9938899791612	47.463701412668605	0.703	124.80751613490604	51.18637384425515	58192.89052542133	1.5150767408577208	3344
009922	2011	009922	SPARTON CORP	2011	209.34125325564398	35.18170772119739	0.873	142.86709766417198	66.47415559147201	60953.890816253	3.0719396635080254	3344
009922	2012	009922	SPARTON CORP	2012	229.96307458111764	38.688788504973814	0.867	159.19172212336588	70.77135245775175	62223.95935118233	4.0266800762830055	3344
009922	2013	009922	SPARTON CORP	2013	272.89747430189374	41.98847926267281	1.24	173.17909682184697	99.7183774800468	62682.861773938734	3.6340428726958742	3344
009922	2014	009922	SPARTON CORP	2014	343.26869070596285	59.731469762834976	1.385	224.59814343923287	118.67054726672997	64311.75515456021	3.2316724204774125	3344
009937	1998	009937	SPECTRUM CONTROL INC	1998	31.140216277509328	42.056393111713874	0.792	10.03683271522421	21.103383562285117	20045.981077018307	3.888160768894714	3344
009937	1999	009937	SPECTRUM CONTROL INC	1999	57.682750479563225	41.46879133337532	1.324	17.806295410948795	39.87645506861443	23840.047218533273	5.728110599078342	3344
009937	2000	009937	SPECTRUM CONTROL INC	2000	87.52449767395824	49.1598113964687	1.724	24.663206308357264	62.86129136560098	28345.375960935697	7.826757194835815	3344
009937	2001	009937	SPECTRUM CONTROL INC	2001	65.98459423096826	54.42398685920224	0.788	36.71838490766888	29.26620932329938	31764.418883155668	3.481112870391314	3344
009937	2002	009937	SPECTRUM CONTROL INC	2002	44.19015988259829	56.1409968457356	0.86	13.084560129759794	31.105599752838494	34059.6277129837	0.5745526617599573	3344
009937	2003	009937	SPECTRUM CONTROL INC	2003	51.20939875604699	46.08943245710991	0.864	14.866926297816983	36.342472458230006	37331.59884548152	1.006988389368844	3344
009937	2004	009937	SPECTRUM CONTROL INC	2004	67.9434683867046	40.986858418051085	1.065	16.346581171325575	51.59688721537902	40407.10191055915	2.40349678412998	3344
009937	2005	009937	SPECTRUM CONTROL INC	2005	85.98805745709515	48.67462482141381	1.173	26.182975319327504	59.80508213776764	43090.198546961474	3.5179442674653654	3344
009937	2006	009937	SPECTRUM CONTROL INC	2006	114.09376475287795	43.93161182152008	1.548	30.05411264843664	84.0396521044413	46689.000254203434	8.880168592398809	3344
009937	2007	009937	SPECTRUM CONTROL INC	2007	129.29094937787625	56.745391705069125	1.607	27.49955210878169	101.79139726909456	50649.58430392213	5.893451269982958	3344
009937	2008	009937	SPECTRUM CONTROL INC	2008	128.51439584644427	62.484839554311236	1.516	29.9250707992448	98.58932504719948	53492.76274386406	4.453187874452294	3344
009937	2009	009937	SPECTRUM CONTROL INC	2009	132.306	68.60229191934077	1.399	37.51867300000002	94.78732699999999	54873.0	3.952	3344
009937	2010	009937	SPECTRUM CONTROL INC	2010	165.83648613106197	72.69509160823344	1.631	42.88252776822386	122.95395836283812	58192.89052542133	6.314958298376351	3344
009954	2004	009954	SPIRE CORP	2004	14.587114912154801	35.65614003292406	0.116	13.49981341865982	1.0873014934949814	40407.10191055915	0.4414364580960748	3344
009954	2005	009954	SPIRE CORP	2005	19.602906077058254	30.156830635510488	0.118	18.11413958612007	1.4887664909381806	43090.198546961474	0.452972366568946	3344
009954	2006	009954	SPIRE CORP	2006	18.270871917783346	27.639482916045942	0.126	18.03863710643861	0.23223481134473545	46689.000254203434	4.240763233568989	3344
009954	2007	009954	SPIRE CORP	2007	35.10027839327311	31.36622861393504	0.188	29.712391341401055	5.387887051872052	50649.58430392213	1.7548486569828774	3344
009954	2008	009954	SPIRE CORP	2008	67.5070799244808	33.0074504386431	0.229	53.61312146003776	13.893958464443042	53492.76274386406	1.6990074219797908	3344
009954	2009	009954	SPIRE CORP	2009	69.871	30.850247364008833	0.211	69.22379699999999	0.6472030000000046	54873.0	0.622	3344
009954	2010	009954	SPIRE CORP	2010	80.76759665769721	31.564592115050832	0.194	72.44821251542679	8.319384142270426	58192.89052542133	0.8063958939939792	3344
009954	2011	009954	SPIRE CORP	2011	63.371045615046484	32.64968769555926	0.173	55.06302309062272	8.308022524423762	60953.890816253	0.26977373815509575	3344
009954	2012	009954	SPIRE CORP	2012	22.741532353455458	32.97911279562656	0.118	21.399742859199986	1.341789494255472	62223.95935118233	0.13567748607645377	3344
009954	2013	009954	SPIRE CORP	2013	14.958246989064198	24.971193213856672	0.086	17.638059869919367	-2.6798128808551693	62682.861773938734	0.13045763411795624	3344
009999	1998	009999	STANDARD MICROSYSTEMS CORP	1998	184.20414765959438	176.50413171008643	0.793	171.82648541245132	12.377662247143085	20045.981077018307	22.866116444098097	3344
009999	1999	009999	STANDARD MICROSYSTEMS CORP	1999	91.92681127342483	198.68237072494802	0.481	75.98166091190794	15.945150361516882	23840.047218533273	6.722350230414746	3344
009999	2000	009999	STANDARD MICROSYSTEMS CORP	2000	102.82490349401168	165.2989566613162	0.538	74.18830842324061	28.636595070771058	28345.375960935697	12.294979767180894	3344
009999	2001	009999	STANDARD MICROSYSTEMS CORP	2001	113.28636692934342	122.35152487961476	0.419	91.11136582048289	22.175001108860524	31764.418883155668	11.8785342682651	3344
009999	2002	009999	STANDARD MICROSYSTEMS CORP	2002	126.22846991581062	127.14702493319277	0.459	102.39937977909942	23.829090136711198	34059.6277129837	16.256722600184837	3344
009999	2003	009999	STANDARD MICROSYSTEMS CORP	2003	129.51583397699093	141.9108092868175	0.428	91.0158559291028	38.49997804788812	37331.59884548152	4.939195509822264	3344
009999	2004	009999	STANDARD MICROSYSTEMS CORP	2004	131.29669810126046	133.54934521398675	0.499	101.27682507788292	30.01987302337755	40407.10191055915	6.17685658195859	3344
009999	2005	009999	STANDARD MICROSYSTEMS CORP	2005	188.7315200951207	141.04962136553874	0.546	131.6611132967888	57.070406798331874	43090.198546961474	10.985638235947803	3344
009999	2006	009999	STANDARD MICROSYSTEMS CORP	2006	189.57675128009586	135.28641453217358	0.559	148.80915404728182	40.76759723281404	46689.000254203434	8.753516667185732	3344
009999	2007	009999	STANDARD MICROSYSTEMS CORP	2007	302.1779065583395	94.9688940092166	0.767	234.0898594776812	68.08804708065831	50649.58430392213	24.091130406556843	3344
009999	2008	009999	STANDARD MICROSYSTEMS CORP	2008	364.41354625550656	121.81180728342005	0.856	269.49299874134675	94.92054751415982	53492.76274386406	26.82146512066927	3344
009999	2009	009999	STANDARD MICROSYSTEMS CORP	2009	377.849	148.76734020976366	0.888	271.10377600000004	106.74522399999995	54873.0	13.263	3344
009999	2010	009999	STANDARD MICROSYSTEMS CORP	2010	329.2694276407631	161.97995491443268	0.946	252.2785157909644	76.99091184979874	58192.89052542133	17.65089078616197	3344
009999	2011	009999	STANDARD MICROSYSTEMS CORP	2011	316.8428746435521	156.7712064114942	0.916	241.55348521191286	75.2893894316392	60953.890816253	8.331077161090697	3344
009999	2012	009999	STANDARD MICROSYSTEMS CORP	2012	421.1750305997552	160.7005193540534	1.026	304.4486428108575	116.72638778889768	62223.95935118233	11.761245576249799	3344
009999	2013	009999	STANDARD MICROSYSTEMS CORP	2013	422.76616262130943	169.4238278339146	1.064	292.87477379511273	129.89138882619667	62682.861773938734	10.986597589818674	3344
010200	1998	010200	SUPERTEX INC	1998	25.45343895803967	24.49125360502412	0.316	12.100552917249667	13.352886040790002	20045.981077018307	8.798838156636322	3344
010200	1999	010200	SUPERTEX INC	1999	31.1087501844474	33.037624995136376	0.312	15.19492872952634	15.913821454921056	23840.047218533273	3.7741935483870965	3344
010200	2000	010200	SUPERTEX INC	2000	33.46926655448876	33.5516785286893	0.396	14.369609027021676	19.099657527467087	28345.375960935697	8.598664747288122	3344
010200	2001	010200	SUPERTEX INC	2001	52.36630838150716	41.94880972811296	0.399	26.4732091902361	25.893099191271055	31764.418883155668	4.388147477946166	3344
010200	2002	010200	SUPERTEX INC	2002	62.914188615123194	46.67452164414498	0.4	36.864292886382934	26.049895728740257	34059.6277129837	5.6709238495028345	3344
010200	2003	010200	SUPERTEX INC	2003	45.68884914020895	45.14304606047725	0.394	24.729538599130038	20.95931054107891	37331.59884548152	6.0694436801848894	3344
010200	2004	010200	SUPERTEX INC	2004	46.36250812599727	41.59907834101382	0.334	25.864248144739836	20.49825998125744	40407.10191055915	1.5065239319298473	3344
010200	2005	010200	SUPERTEX INC	2005	44.93228770512585	41.33049204855877	0.307	26.9047228123552	18.027564892770652	43090.198546961474	2.1272767682326665	3344
010200	2006	010200	SUPERTEX INC	2006	51.34727820750263	43.19508518186867	0.349	25.118002142571818	26.229276064930815	46689.000254203434	1.6630851163225266	3344
010200	2007	010200	SUPERTEX INC	2007	75.84606935212014	45.582949308755765	0.373	35.75611518284946	40.08995416927068	50649.58430392213	2.9517974519191754	3344
010200	2008	010200	SUPERTEX INC	2008	96.38530522341094	50.04073536183628	0.401	44.640497168030194	51.744808055380744	53492.76274386406	3.4844555724462727	3344
010200	2009	010200	SUPERTEX INC	2009	82.559	54.51006775914268	0.41	40.36306999999999	42.195930000000004	54873.0	4.471	3344
010200	2010	010200	SUPERTEX INC	2010	79.72363283225768	58.74381277331924	0.352	41.647124041515774	38.076508790741904	58192.89052542133	1.9454177565019988	3344
010200	2011	010200	SUPERTEX INC	2011	68.68919795344816	54.74478410258227	0.35	40.447708953149615	28.241489000298543	60953.890816253	1.1612840843163799	3344
010200	2012	010200	SUPERTEX INC	2012	85.54765847587504	50.61866359447004	0.373	43.365244849469775	42.18241362640527	62223.95935118233	1.1480402668007628	3344
010200	2013	010200	SUPERTEX INC	2013	67.23055458667596	53.064598018726464	0.361	39.10439073431953	28.126163852356434	62682.861773938734	1.0314599992491646	3344
010200	2014	010200	SUPERTEX INC	2014	62.293843121636385	55.86116327307093	0.33	36.960591485146495	25.333251636489894	64311.75515456021	0.6046116639282221	3344
010359	1998	010359	TECH-SYM CORP	1998	73.0698610684879	148.5990033432158	1.368	40.53026376701535	32.53959730147254	20045.981077018307	5.939097682216949	3344
010359	1999	010359	TECH-SYM CORP	1999	91.59569130883872	91.5074640416067	1.494	51.3612784417884	40.234412867050324	23840.047218533273	20.36520737327189	3344
010361	1998	010361	SIMCLAR INC	1998	23.232927444565235	10.376584873525516	0.415	13.705021508116909	9.527905936448326	20045.981077018307	0.9717450084422561	3344
010361	1999	010361	SIMCLAR INC	1999	28.51999409768334	11.245987158908507	0.403	17.42448103880773	11.095513058875609	23840.047218533273	1.8029953917050692	3344
010361	2000	010361	SIMCLAR INC	2000	34.78372760566169	12.498467724141312	0.458	20.01791679039229	14.765810815269393	28345.375960935697	1.0768167031273024	3344
010361	2001	010361	SIMCLAR INC	2001	27.22252613214661	11.778784196767186	0.256	19.217244999038986	8.00528113310762	31764.418883155668	0.3098846414838272	3344
010361	2002	010361	SIMCLAR INC	2002	26.023016915115473	11.010860685280406	0.284	14.3573430138256	11.665673901289871	34059.6277129837	0.33849614181206783	3344
010361	2003	010361	SIMCLAR INC	2003	29.42152120004878	9.855110769378634	0.538	7.163048904427006	22.25847229562177	37331.59884548152	0.2311120893633412	3344
010361	2004	010361	SIMCLAR INC	2004	45.23711026872778	9.716269349296871	0.549	19.15144410580259	26.08566616292519	40407.10191055915	2.747318300632328	3344
010361	2005	010361	SIMCLAR INC	2005	53.334907021271015	12.541768505071257	0.837	14.271409587256628	39.06349743401439	43090.198546961474	1.8171811995300942	3344
010361	2006	010361	SIMCLAR INC	2006	105.34099575117115	16.213133640552996	0.934	54.48776373606422	50.85323201510694	46689.000254203434	1.1741256345572892	3344
010361	2007	010361	SIMCLAR INC	2007	129.17447872279985	21.38543315991857	0.95	73.8788042346079	55.29567448819194	50649.58430392213	2.12306256593362	3344
010499	1998	010499	TEXAS INSTRUMENTS INC	1998	4400.451488403302	9297.251203852327	35.948	2591.1689430073916	1809.2825453959108	20045.981077018307	1217.337914585621	3344
010499	1999	010499	TEXAS INSTRUMENTS INC	1999	5588.313413014608	7819.510162053494	38.197	2967.2037615464064	2621.1096514682017	23840.047218533273	1581.7972350230416	3344
010499	2000	010499	TEXAS INSTRUMENTS INC	2000	7826.058266521495	8738.662444616271	42.481	4134.208429179452	3691.849837342044	28345.375960935697	3130.7028779343254	3344
010499	2001	010499	TEXAS INSTRUMENTS INC	2001	6062.510164554903	10931.568071507521	34.724	3943.0669929180776	2119.4431716368254	31764.418883155668	2024.42886224836	3344
010499	2002	010499	TEXAS INSTRUMENTS INC	2002	6474.85904070441	11433.058222049049	34.589	3742.7426175948094	2732.116423109601	34059.6277129837	893.0062688594685	3344
010499	2003	010499	TEXAS INSTRUMENTS INC	2003	7995.446969388999	10963.133640552995	34.154	4578.873072889141	3416.5738964998573	37331.59884548152	880.4270070984428	3344
010499	2004	010499	TEXAS INSTRUMENTS INC	2004	10620.783979332527	10823.708103329065	35.472	6002.072326019232	4618.711653313296	40407.10191055915	1407.8243798739684	3344
010499	2005	010499	TEXAS INSTRUMENTS INC	2005	11708.238256353765	10826.736032571816	35.207	6394.202350914925	5314.03590543884	43090.198546961474	1407.601045646491	3344
010499	2006	010499	TEXAS INSTRUMENTS INC	2006	12887.206304245197	9933.302898373215	30.986	7376.87745397102	5510.328850274176	46689.000254203434	1320.5020399265004	3344
010499	2007	010499	TEXAS INSTRUMENTS INC	2007	13100.581406359488	8530.237165025037	30.175	7235.355401208265	5865.226005151222	50649.58430392213	695.8532824799156	3344
010499	2008	010499	TEXAS INSTRUMENTS INC	2008	12292.518879798614	8208.331977570257	29.537	6981.776274386406	5310.742605412208	53492.76274386406	758.095124544199	3344
010499	2009	010499	TEXAS INSTRUMENTS INC	2009	10427.0	7940.433193418584	26.584	5840.256168	4586.743832	54873.0	753.0	3344
010499	2010	010499	TEXAS INSTRUMENTS INC	2010	14127.905800473425	7096.214294029866	28.412	7093.867003864285	7034.038796609141	58192.89052542133	1183.4377930217638	3344
010499	2011	010499	TEXAS INSTRUMENTS INC	2011	14100.412810508653	7170.367602022278	34.759	7352.267997405779	6748.144813102874	60953.890816253	789.0156642815703	3344
010499	2012	010499	TEXAS INSTRUMENTS INC	2012	13052.467008835358	7087.14616431687	34.151	7292.514224000493	5759.952784834864	62223.95935118233	469.65283641849385	3344
010499	2013	010499	TEXAS INSTRUMENTS INC	2013	12520.773918217445	6891.0	32.209	6441.418250271857	6079.355667945588	62682.861773938734	386.6801817021436	3344
010499	2014	010499	TEXAS INSTRUMENTS INC	2014	13321.691533143388	6339.199381164185	31.003	6083.918049896347	7237.7734832470405	64311.75515456021	355.38242841582513	3344
010619	1998	010619	TOROTEL INC	1998	7.630570134146152	5.968872686483455	0.22	2.7309950950050195	4.899575039141132	20045.981077018307	0.3447746567012622	3344
010619	1999	010619	TOROTEL INC	1999	6.928139294673159	6.130562518530498	0.191	2.470307805813782	4.457831488859377	23840.047218533273	0.1543778801843318	3344
010619	2000	010619	TOROTEL INC	2000	3.004388135537299	5.624943257720192	0.055	1.830096670955822	1.1742914645814773	28345.375960935697	0.052140598256690436	3344
010619	2001	010619	TOROTEL INC	2001	2.4572349453701374	2.5550237993333593	0.05	0.7322545352395873	1.7249804101305501	31764.418883155668	0.002261931689662972	3344
010619	2002	010619	TOROTEL INC	2002	2.687881362477794	2.6576103069998114	0.045	0.8006758322391287	1.8872055302386654	34059.6277129837	0.0011134741506975917	3344
010619	2003	010619	TOROTEL INC	2003	3.201756168949957	2.839321583374866	0.055	0.6119110532948492	2.589845115655108	37331.59884548152	0.026412810212953285	3344
010619	2006	010619	TOROTEL INC	2006	4.002796237789156	2.658781110981414	0.079	0.02657061408287026	3.976225623706286	46689.000254203434	0.043601482450403316	3344
010619	2007	010619	TOROTEL INC	2007	5.201409010851656	2.2415743044560053	0.08	0.5595136639963642	4.641895346855292	50649.58430392213	0.09027834131299196	3344
010619	2008	010619	TOROTEL INC	2008	5.04051290119572	2.33657543542185	0.08	0.6725928256765262	4.367920075519194	53492.76274386406	0.03378143412123561	3344
010619	2009	010619	TOROTEL INC	2009	6.055	2.350147025559828	0.085	1.0757949999999994	4.979205	54873.0	0.092	3344
010619	2010	010619	TOROTEL INC	2010	7.288526513848707	2.437006222867053	0.096	1.2346531248103263	6.0538733890383805	58192.89052542133	0.02368849627399694	3344
010619	2011	010619	TOROTEL INC	2011	7.299848670461916	2.5149769585253456	0.113	0.2864657861415077	7.013382884320408	60953.890816253	0.08122220073486754	3344
010619	2012	010619	TOROTEL INC	2012	11.450994106332862	2.630184331797235	0.143	1.6540036822562543	9.796990424076608	62223.95935118233	0.4990654382952076	3344
010619	2013	010619	TOROTEL INC	2013	11.108147479431256	3.233431350373219	0.113	3.6792650649377294	7.428882414493526	62682.861773938734	0.46551788865112437	3344
010619	2014	010619	TOROTEL INC	2014	12.235123515415172	3.700690896864391	0.121	3.0288124342595713	9.2063110811556	64311.75515456021	0.22984473941698821	3344
011001	1998	011001	UNITRODE CORP	1998	70.79629446614618	99.76534409890871	0.562	36.573204059234456	34.22309040691172	20045.981077018307	22.064397293755093	3344
011062	1998	011062	VLSI TECHNOLOGY INC	1998	284.9391166847852	979.1723877306796	2.205	181.86790583241876	103.0712108523664	20045.981077018307	186.57031868041042	3344
011169	1998	011169	VIDEO DISPLAY CORP	1998	28.01776825329124	21.3242230667637	0.57	13.848298856194702	14.169469397096536	20045.981077018307	1.1901810066947682	3344
011169	1999	011169	VIDEO DISPLAY CORP	1999	34.182086468939055	24.022263550847686	0.667	13.347618710343804	20.834467758595252	23840.047218533273	0.7649769585253456	3344
011169	2000	011169	VIDEO DISPLAY CORP	2000	38.859084760302224	24.91711813697744	0.588	19.016049358276423	19.8430354020258	28345.375960935697	2.308921709758226	3344
011169	2001	011169	VIDEO DISPLAY CORP	2001	47.19162588524033	27.881997789816985	0.474	29.066704614338303	18.12492127090202	31764.418883155668	1.553947070798462	3344
011169	2002	011169	VIDEO DISPLAY CORP	2002	54.68911717000077	27.999245303361096	0.497	34.303538271414226	20.385578898586544	34059.6277129837	1.6323531049226694	3344
011169	2003	011169	VIDEO DISPLAY CORP	2003	58.836538070653276	31.001387754043293	0.584	32.71682263506647	26.1197154355868	37331.59884548152	3.473284543003357	3344
011169	2004	011169	VIDEO DISPLAY CORP	2004	64.65507779850903	33.07803741260943	0.455	41.635706265249425	23.019371533259605	40407.10191055915	1.233202095467413	3344
011169	2005	011169	VIDEO DISPLAY CORP	2005	66.96217029052028	31.97754368258374	0.404	43.056147437074344	23.906022853445936	43090.198546961474	0.769418015176691	3344
011169	2006	011169	VIDEO DISPLAY CORP	2006	75.11711515415622	33.87676225309002	0.473	45.79295947270945	29.324155681446772	46689.000254203434	0.798322381056194	3344
011169	2007	011169	VIDEO DISPLAY CORP	2007	79.42541143495635	36.62974043826312	0.462	52.766018976194545	26.659392458761804	50649.58430392213	1.9556926073196461	3344
011169	2008	011169	VIDEO DISPLAY CORP	2008	80.57249056010068	37.64963749789243	0.497	47.03744493392069	33.53504562617999	53492.76274386406	0.442139358351466	3344
011169	2009	011169	VIDEO DISPLAY CORP	2009	88.201	36.37138844301766	0.523	51.943421	36.25757899999999	54873.0	0.839	3344
011169	2010	011169	VIDEO DISPLAY CORP	2010	73.74815384304127	35.78499687635158	0.461	43.86116292714508	29.886990915896178	58192.89052542133	0.978137491980457	3344
011169	2011	011169	VIDEO DISPLAY CORP	2011	72.50537889004416	34.72223796515648	0.44	41.18387053603598	31.321508354008177	60953.890816253	0.40417714175207886	3344
011169	2012	011169	VIDEO DISPLAY CORP	2012	60.725342768686424	35.11762044786247	0.31	35.643047427049154	25.082295341637263	62223.95935118233	0.9079954837424214	3344
011169	2013	011169	VIDEO DISPLAY CORP	2013	65.89281684072303	27.94815668202765	0.324	38.28551262849053	27.6073042122325	62682.861773938734	0.5790817284228704	3344
011169	2014	011169	VIDEO DISPLAY CORP	2014	50.14450129183134	29.88971118266135	0.285	30.562625736548107	19.58187555528323	64311.75515456021	0.6692266509129174	3344
011191	1998	011191	VISHAY INTERTECHNOLOGY INC	1998	818.060056280006	1344.7540467342694	21.522	248.68461974585577	569.3754365341503	20045.981077018307	179.09626533479744	3344
011191	1999	011191	VISHAY INTERTECHNOLOGY INC	1999	1038.861443116423	1803.0510132423756	21.124	339.3362939353696	699.5251491810534	23840.047218533273	137.83179723502306	3344
011191	2000	011191	VISHAY INTERTECHNOLOGY INC	2000	1626.6231152462965	1775.5007477506188	22.418	440.678605034808	1185.9445102114883	28345.375960935697	260.45475669609965	3344
011191	2001	011191	VISHAY INTERTECHNOLOGY INC	2001	1223.6985673521888	1920.719957779496	21.41	356.9102044738826	866.7883628783063	31764.418883155668	183.77403302420268	3344
011191	2002	011191	VISHAY INTERTECHNOLOGY INC	2002	1407.903761489148	2236.4289490124465	25.25	426.04213331273667	981.8616281764115	34059.6277129837	122.5645536638867	3344
011191	2003	011191	VISHAY INTERTECHNOLOGY INC	2003	1764.7847473474533	2514.5289457216063	25.2	595.3468027155576	1169.4379446318956	37331.59884548152	139.36609255488912	3344
011191	2004	011191	VISHAY INTERTECHNOLOGY INC	2004	2037.6843651591005	2614.9008772861985	25.7	695.5678911243003	1342.1164740348001	40407.10191055915	172.04850377986747	3344
011191	2005	011191	VISHAY INTERTECHNOLOGY INC	2005	2007.7818868518375	2615.6981566820277	26.1	588.5097175230152	1419.2721693288222	43090.198546961474	144.69080402595065	3344
011191	2006	011191	VISHAY INTERTECHNOLOGY INC	2006	2343.6440062461415	2593.7937788018435	27.0	660.2534771398481	1683.3905291062933	46689.000254203434	190.2872507189054	3344
011191	2007	011191	VISHAY INTERTECHNOLOGY INC	2007	2682.864609965343	2766.183421556737	27.9	828.8353881408256	1854.0292218245174	50649.58430392213	202.90006491925666	3344
011191	2008	011191	VISHAY INTERTECHNOLOGY INC	2008	2775.1445484581495	3049.464425376603	24.8	1092.3418816865951	1682.8026667715542	53492.76274386406	151.0169205242084	3344
011191	2009	011191	VISHAY INTERTECHNOLOGY INC	2009	2042.033	3143.39176656865	22.3	556.1260999999997	1485.9069000000002	54873.0	50.34	3344
011191	2010	011191	VISHAY INTERTECHNOLOGY INC	2010	2756.683593987092	3106.0138738879177	22.6	818.5054727173409	1938.1781212697513	58192.89052542133	143.52563786211323	3344
011191	2011	011191	VISHAY INTERTECHNOLOGY INC	2011	2670.430002367741	2974.5148036388337	20.9	848.7538475792421	1821.676154788499	60953.890816253	163.064204215819	3344
011191	2012	011191	VISHAY INTERTECHNOLOGY INC	2012	2293.795706777203	3072.263358906123	21.6	594.2836571593142	1699.5120496178888	62223.95935118233	142.59514027913508	3344
011191	2013	011191	VISHAY INTERTECHNOLOGY INC	2013	2432.3221650013334	3207.018227571847	22.5	643.5647017788627	1788.7574632224707	62682.861773938734	143.66951984082291	3344
011191	2014	011191	VISHAY INTERTECHNOLOGY INC	2014	2546.1658650163904	3494.8642840986204	22.6	678.216966391961	1867.9488986244294	64311.75515456021	144.89818524193697	3344
011573	1998	011573	WOODHEAD INDUSTRIES INC	1998	76.75302856132285	108.56876429705827	1.268	37.10971896407339	39.64330959724946	20045.981077018307	11.933689915341292	3344
011573	1999	011573	WOODHEAD INDUSTRIES INC	1999	99.56972111553785	153.7370960351473	1.616	42.94475077467906	56.62497034085879	23840.047218533273	8.963133640552996	3344
011573	2000	011573	WOODHEAD INDUSTRIES INC	2000	127.49084430367218	153.00700182930677	1.679	57.001468870632465	70.48937543303971	28345.375960935697	9.32183217528309	3344
011573	2001	011573	WOODHEAD INDUSTRIES INC	2001	140.5931664621435	155.290680176565	1.534	69.73664857991928	70.85651788222422	31764.418883155668	11.331146799366659	3344
011573	2002	011573	WOODHEAD INDUSTRIES INC	2002	131.44280528307718	168.12866213930226	1.49	65.76849463196106	65.6743106511161	34059.6277129837	7.980269238049639	3344
011573	2003	011573	WOODHEAD INDUSTRIES INC	2003	145.5652668807675	169.62048591532027	1.506	71.1667173462336	74.39854953453391	37331.59884548152	4.959005117481979	3344
011573	2004	011573	WOODHEAD INDUSTRIES INC	2004	170.31668172262698	180.97254439903284	1.558	88.88833149003351	81.42835023259349	40407.10191055915	8.05106346055814	3344
011573	2005	011573	WOODHEAD INDUSTRIES INC	2005	187.9997552040986	188.3083569596328	1.541	101.40209737631251	86.59765782778608	43090.198546961474	9.588620656809931	3344
011646	1998	011646	XICOR INC	1998	55.212142333279594	209.50271735171128	0.565	49.73210561083573	5.480036722443861	20045.981077018307	5.752541532358046	3344
011646	1999	011646	XICOR INC	1999	67.80994540357091	203.90773976444197	0.5	49.55791648221928	18.252028921351624	23840.047218533273	1.7914746543778801	3344
011646	2000	011646	XICOR INC	2000	81.06437031904716	60.09335772409008	0.3	63.84651423669538	17.217856082351776	28345.375960935697	6.823617424027748	3344
011646	2001	011646	XICOR INC	2001	51.80078950870085	59.21395729671852	0.155	42.996292709611595	8.804496799089257	31764.418883155668	0.2963130513458494	3344
011646	2002	011646	XICOR INC	2002	29.76287943152854	50.445174558587475	0.117	27.311849077006254	2.4510303545222847	34059.6277129837	1.0422118050529459	3344
011646	2003	011646	XICOR INC	2003	33.698930850847596	31.927166934189405	0.126	26.669851619984552	7.02907923086304	37331.59884548152	0.9783745116381446	3344
011693	1998	011693	GATEFIELD CORP	1998	4.005139061549105	8.44901015010371	0.037	8.770243897364411	-4.765104835815306	20045.981077018307	0.3920040617288324	3344
011693	1999	011693	GATEFIELD CORP	1999	1.1727903202006789	8.072216699191182	0.033	5.021158034528552	-3.8483677143278734	23840.047218533273	0.8444700460829493	3344
011719	1998	011719	MICROENERGY INC	1998	6.174155929946477	8.073615812614294	0.106	4.627686434021836	1.546469495924641	20045.981077018307	0.14286895020839976	3344
011768	1998	011768	ZING TECHNOLOGIES INC	1998	11.325180881442684	15.143017386427372	0.179	7.185593462780815	4.1395874186618675	20045.981077018307	1.0118900027156907	3344
011768	1999	011768	ZING TECHNOLOGIES INC	1999	14.96945551128818	15.709819142341177	0.195	9.488419654714473	5.481035856573706	23840.047218533273	1.8559907834101383	3344
011907	1998	011907	DPAC TECHNOLOGIES CORP	1998	7.2945545713200834	6.381671348314607	0.106	5.114024748638513	2.1805298226815704	20045.981077018307	1.6471255003365095	3344
011907	1999	011907	DPAC TECHNOLOGIES CORP	1999	7.946879150066401	6.687776918639616	0.094	6.172787959274015	1.7740911907923858	23840.047218533273	1.0633640552995391	3344
011907	2000	011907	DPAC TECHNOLOGIES CORP	2000	8.317001550694513	8.065019943293768	0.099	6.34620475766274	1.970796793031773	28345.375960935697	0.6392890742776827	3344
011907	2001	011907	DPAC TECHNOLOGIES CORP	2001	20.29954019249819	7.12455574840896	0.104	13.977722252613217	6.321817939884972	31764.418883155668	1.7021035964713864	3344
011907	2002	011907	DPAC TECHNOLOGIES CORP	2002	27.66895805978219	10.73041474654378	0.112	21.22664401019541	6.44231404958678	34059.6277129837	0.820630449064125	3344
011907	2003	011907	DPAC TECHNOLOGIES CORP	2003	24.8018212122444	10.275098330367365	0.111	17.25299727631204	7.548823935932355	37331.59884548152	0.5535684807131459	3344
011907	2004	011907	DPAC TECHNOLOGIES CORP	2004	29.11766444063589	11.022393123727664	0.105	22.890909014158225	6.226755426477665	40407.10191055915	0.787427195522728	3344
011907	2006	011907	DPAC TECHNOLOGIES CORP	2006	12.474125721756183	11.843474327075322	0.045	9.585997930057742	2.8881277916984405	46689.000254203434	0.25538011149521944	3344
011907	2007	011907	DPAC TECHNOLOGIES CORP	2007	11.481355226028825	1.2920266329169647	0.038	8.707287464727383	2.774067761301441	50649.58430392213	0.06390489328897184	3344
011907	2008	011907	DPAC TECHNOLOGIES CORP	2008	9.004287287602265	1.3239916602283912	0.029	6.975102265575832	2.0291850220264327	53492.76274386406	0.06160143869166493	3344
011907	2009	011907	DPAC TECHNOLOGIES CORP	2009	6.807	1.331859125213016	0.019	5.726413	1.0805870000000004	54873.0	0.037	3344
011907	2010	011907	DPAC TECHNOLOGIES CORP	2010	7.937969126186093	1.7294895723443966	0.022	5.978946729520303	1.95902239666579	58192.89052542133	0.06909144746582442	3344
012215	1998	012215	CYPRESS SEMICONDUCTOR CORP	1998	253.22933842384776	1022.2311396468699	2.901	159.42812907991035	93.80120934393743	20045.981077018307	97.06233100728514	3344
012215	1999	012215	CYPRESS SEMICONDUCTOR CORP	1999	416.4007673011657	902.7482899801416	3.81	211.03101077172786	205.3697565294378	23840.047218533273	131.4746543778802	3344
012215	2000	012215	CYPRESS SEMICONDUCTOR CORP	2000	849.7720149130622	1051.5518889896784	4.435	374.3430268237157	475.42898808934643	28345.375960935697	383.95883159720256	3344
012215	2001	012215	CYPRESS SEMICONDUCTOR CORP	2001	605.5797862116889	1425.5495415884236	4.16	412.2669249079646	193.31286130372425	31764.418883155668	199.94684460529294	3344
012215	2002	012215	CYPRESS SEMICONDUCTOR CORP	2002	598.3980844983394	1378.2461915517324	4.101	368.09237892948164	230.30570556885772	34059.6277129837	176.52128405839062	3344
012215	2003	012215	CYPRESS SEMICONDUCTOR CORP	2003	680.3170860604089	1418.426267281106	4.033	365.2349867880808	315.0820992723281	37331.59884548152	86.33687338359105	3344
012215	2004	012215	CYPRESS SEMICONDUCTOR CORP	2004	800.7277516526378	1456.5541474654378	4.5	465.7977829746637	334.9299686779741	40407.10191055915	143.47227193353507	3344
012215	2005	012215	CYPRESS SEMICONDUCTOR CORP	2005	774.9503851164092	1582.3502304147466	5.1	470.900149500354	304.05023561605515	43090.198546961474	155.00545048525194	3344
012215	2006	012215	CYPRESS SEMICONDUCTOR CORP	2006	990.9875803464431	1693.3824884792627	5.8	591.4836401931948	399.50394015324827	46689.000254203434	229.59294901740947	3344
012215	2007	012215	CYPRESS SEMICONDUCTOR CORP	2007	1511.6442247599568	1863.8064516129034	7.9	945.1611650853171	566.4830596746397	50649.58430392213	233.570356244421	3344
012215	2008	012215	CYPRESS SEMICONDUCTOR CORP	2008	752.9460352422907	2003.234984074448	4.1	566.132394587791	186.81364065449964	53492.76274386406	41.86115830576172	3344
012215	2009	012215	CYPRESS SEMICONDUCTOR CORP	2009	667.786	1446.4619815668202	3.6	548.4572	119.3288	54873.0	25.823	3344
012215	2010	012215	CYPRESS SEMICONDUCTOR CORP	2010	887.7051004511704	1430.621365755202	3.5	531.6669027049994	356.0381977461711	58192.89052542133	50.12683215713369	3344
012215	2011	012215	CYPRESS SEMICONDUCTOR CORP	2011	1024.5153851697053	1513.448033707865	3.4	628.4787778338257	396.0366073358795	60953.890816253	77.89209050473796	3344
012215	2012	012215	CYPRESS SEMICONDUCTOR CORP	2012	791.671723769067	1557.8588984751202	3.6	515.6582290198821	276.0134947491848	62223.95935118233	31.322523411482297	3344
012215	2013	012215	CYPRESS SEMICONDUCTOR CORP	2013	741.3908779416894	1620.832651004598	3.4	495.66691971521783	245.7239582264716	62682.861773938734	34.37605586214664	3344
012215	2014	012215	CYPRESS SEMICONDUCTOR CORP	2014	740.8851852986529	1614.6677583926435	3.35	446.79738161616774	294.08780368248523	64311.75515456021	19.335573319548804	3344
012216	1998	012216	LINEAR TECHNOLOGY CORP	1998	252.16719635064214	234.90064971929604	2.155	69.74063083540959	182.42656551523257	20045.981077018307	28.834732504457275	3344
012216	1999	012216	LINEAR TECHNOLOGY CORP	1999	299.05208794451823	263.93399256786546	2.337	78.1332347646451	220.91885317987314	23840.047218533273	45.07834101382488	3344
012216	2000	012216	LINEAR TECHNOLOGY CORP	2000	465.8134547494144	311.8128009630818	2.815	122.49949519944576	343.3139595499686	28345.375960935697	91.02955011731635	3344
012216	2001	012216	LINEAR TECHNOLOGY CORP	2001	719.0036518473617	403.2471989997303	3.193	187.28801026065616	531.7156415867055	31764.418883155668	144.60642388599865	3344
012216	2002	012216	LINEAR TECHNOLOGY CORP	2002	395.6762184289797	560.6760189992268	2.691	94.42880435622156	301.2474140727582	34059.6277129837	19.91671213352782	3344
012216	2003	012216	LINEAR TECHNOLOGY CORP	2003	493.1688280011382	564.9478590994281	2.613	118.85075978698319	374.31806821415506	37331.59884548152	7.273427612392011	3344
012216	2004	012216	LINEAR TECHNOLOGY CORP	2004	681.5546193656234	555.0328834732505	3.05	148.44609825491563	533.1085211107077	40407.10191055915	22.477467217648783	3344
012216	2005	012216	LINEAR TECHNOLOGY CORP	2005	917.7171033650693	558.3917050691244	3.217	220.90357751724497	696.8135258478244	43090.198546961474	65.75190237810493	3344
012216	2006	012216	LINEAR TECHNOLOGY CORP	2006	992.2803863892218	628.7672811059907	3.755	260.23769383011955	732.0426925591023	46689.000254203434	72.03587779127348	3344
012216	2007	012216	LINEAR TECHNOLOGY CORP	2007	1025.5837736492244	687.221198156682	3.837	286.7315370338806	738.8522366153438	50649.58430392213	62.88241499634829	3344
012216	2008	012216	LINEAR TECHNOLOGY CORP	2008	1155.5547907488985	741.3644967865523	4.173	325.8120280050346	829.742762743864	53492.76274386406	35.04227647123113	3344
012216	2009	012216	LINEAR TECHNOLOGY CORP	2009	968.498	780.9414778459133	3.821	294.86326700000006	673.634733	54873.0	39.13	3344
012216	2010	012216	LINEAR TECHNOLOGY CORP	2010	1183.5515001922026	824.2487786631605	4.191	323.7062071337529	859.8452930584498	58192.89052542133	37.844346839066276	3344
012216	2011	012216	LINEAR TECHNOLOGY CORP	2011	1527.6685986061211	861.0827108577129	4.505	406.09224925107327	1121.5763493550478	60953.890816253	116.43299168439374	3344
012216	2012	012216	LINEAR TECHNOLOGY CORP	2012	1302.7997490305793	989.0844791040886	4.365	375.65181078551376	927.1479382450653	62223.95935118233	33.901344440543845	3344
012216	2013	012216	LINEAR TECHNOLOGY CORP	2013	1315.4106567635777	1026.1287039131419	4.306	400.7168673957202	914.6937893678573	62682.861773938734	16.555918459285955	3344
012216	2014	012216	LINEAR TECHNOLOGY CORP	2014	1417.8344209225615	1025.8136712356225	4.661	412.43616310774786	1005.3982578148136	64311.75515456021	34.77117063894991	3344
012234	1998	012234	SIGMA DESIGNS INC	1998	21.437376789959064	4.631150555296771	0.086	18.28249546170931	3.154881328249754	20045.981077018307	0.40735361836279266	3344
012234	1999	012234	SIGMA DESIGNS INC	1999	21.82794746938173	5.581161587682954	0.071	22.029357532831636	-0.20141006344990503	23840.047218533273	0.6370967741935485	3344
012234	2000	012234	SIGMA DESIGNS INC	2000	28.73074004421129	4.612344588043252	0.078	26.442595928602067	2.288144115609225	28345.375960935697	0.03853870305929293	3344
012234	2001	012234	SIGMA DESIGNS INC	2001	37.20153170601889	5.316837880628889	0.093	32.172393068882414	5.029138637136478	31764.418883155668	0.5270300836914725	3344
012234	2002	012234	SIGMA DESIGNS INC	2002	22.76666409206766	5.487438172735864	0.098	24.40526299528848	-1.6385989032208221	34059.6277129837	0.40530459085392334	3344
012234	2003	012234	SIGMA DESIGNS INC	2003	10.924834342859464	6.033447066173291	0.108	14.21527053945282	-3.290436196593356	37331.59884548152	0.18929180652616517	3344
012234	2004	012234	SIGMA DESIGNS INC	2004	15.314022305334873	6.092593248556552	0.116	15.060004896704854	0.25401740863001915	40407.10191055915	0.755973492120305	3344
012234	2005	012234	SIGMA DESIGNS INC	2005	26.682753254474083	7.115109867403445	0.133	19.128027382170117	7.554725872303964	43090.198546961474	0.2804618624784362	3344
012234	2006	012234	SIGMA DESIGNS INC	2006	28.5406907070487	5.786782851003035	0.149	20.003429022769367	8.537261684279333	46689.000254203434	1.2727480353379634	3344
012234	2007	012234	SIGMA DESIGNS INC	2007	31.551237619074673	6.661707579138772	0.16	23.960532545499312	7.590705073575362	50649.58430392213	0.7090400064919256	3344
012234	2008	012234	SIGMA DESIGNS INC	2008	89.69674323473882	5.28161049536304	0.18	71.99594870988042	17.700794524858406	53492.76274386406	2.9946247776883563	3344
012234	2009	012234	SIGMA DESIGNS INC	2009	221.206	8.057571123331057	0.219	144.636813	76.569187	54873.0	7.582	3344
012234	2010	012234	SIGMA DESIGNS INC	2010	211.58476136524573	14.440477156536558	0.326	157.81103850122403	53.77372286402169	58192.89052542133	15.487341459803584	3344
012234	2011	012234	SIGMA DESIGNS INC	2011	212.15268841556946	30.59604359792145	0.499	161.12602559219263	51.02666282337681	60953.890816253	7.222007348675305	3344
012234	2012	012234	SIGMA DESIGNS INC	2012	295.11021054688706	40.775798252973395	0.592	216.51704637791468	78.59316416897238	62223.95935118233	13.902672751596345	3344
012234	2013	012234	SIGMA DESIGNS INC	2013	187.34175916617082	52.64842390253336	0.691	178.2879398428363	9.053819323334519	62682.861773938734	13.363929871982581	3344
012234	2014	012234	SIGMA DESIGNS INC	2014	221.20747934601675	69.85113428275946	0.945	197.63046475291813	23.577014593098635	64311.75515456021	16.27282293647424	3344
012482	1999	012482	CLEARFIELD INC	1999	1.2931975800501696	5.173598952051152	0.03	0.974041611332448	0.3191559687177215	23840.047218533273	1.066820276497696	3344
012482	2000	012482	CLEARFIELD INC	2000	0.47642614404962225	7.842048823566518	0.036	0.8740532515094527	-0.39762710745983043	28345.375960935697	0.2675039388821509	3344
012482	2001	012482	CLEARFIELD INC	2001	0.3112201901326197	8.141045858827983	0.043	1.4417648624273693	-1.1305446722947496	31764.418883155668	0.2205383397421398	3344
012482	2002	012482	CLEARFIELD INC	2002	0.6843284158492315	8.378224941651423	0.058	2.1050235575809073	-1.4206951417316755	34059.6277129837	1.2559988419868833	3344
012482	2003	012482	CLEARFIELD INC	2003	0.48457254359933327	9.699110578439413	0.051	2.7629448351559005	-2.2783722915565674	37331.59884548152	1.1555604468167062	3344
012482	2004	012482	CLEARFIELD INC	2004	0.36809712360802715	10.454116016879762	0.044	2.404548869958715	-2.036451746350688	40407.10191055915	0.38937515591275396	3344
012482	2005	012482	CLEARFIELD INC	2005	10.411694249919131	11.204388968666004	0.147	8.962861838941782	1.4488324109773483	43090.198546961474	0.8318604675775504	3344
012482	2006	012482	CLEARFIELD INC	2006	12.606674655917493	11.040322580645162	0.127	9.211035152703635	3.395639503213857	46689.000254203434	0.43705295503856656	3344
012482	2008	012482	CLEARFIELD INC	2008	23.102186910006292	10.811239699398117	0.112	15.64092983008181	7.461257079924482	53492.76274386406	1.8917603107891938	3344
012482	2009	012482	CLEARFIELD INC	2009	24.945	4.417542508116437	0.113	17.068351	7.8766490000000005	54873.0	0.181	3344
012482	2010	012482	CLEARFIELD INC	2010	24.649483076051553	4.409838771804325	0.136	15.094446355230946	9.555036720820604	58192.89052542133	0.4471203671716923	3344
012482	2011	012482	CLEARFIELD INC	2011	36.229526760621376	4.831939608889468	0.165	22.02344063661351	14.206086124007864	60953.890816253	0.7213304970025141	3344
012482	2012	012482	CLEARFIELD INC	2012	38.54437735926683	3.354958883232614	0.159	23.838120609320832	14.706256749946004	62223.95935118233	0.5227852785183639	3344
012482	2013	012482	CLEARFIELD INC	2013	54.73337573606352	3.570130908260405	0.179	35.38720736986808	19.34616836619545	62682.861773938734	0.9563764688215639	3344
012482	2014	012482	CLEARFIELD INC	2014	59.276165967137445	4.616367767589061	0.185	37.96497247837586	21.311193488761578	64311.75515456021	1.3089150220614028	3344
012621	1998	012621	EMRISE CORP	1998	19.38123202238717	11.352270580084399	0.303	13.411849489994957	5.969382532392213	20045.981077018307	0.21489379287544425	3344
012621	1999	012621	EMRISE CORP	1999	16.70414637745315	6.697682584269663	0.223	13.68440725984949	3.0197391176036588	23840.047218533273	0.14285714285714285	3344
012621	2000	012621	EMRISE CORP	2000	18.509353657329505	5.755918940609951	0.221	10.766916757398793	7.742436899930714	28345.375960935697	0.17909162009906715	3344
012621	2001	012621	EMRISE CORP	2001	20.272188299303632	4.845669175513005	0.218	12.274167984978634	7.998020314324998	31764.418883155668	0.13571590137977832	3344
012621	2002	012621	EMRISE CORP	2002	17.505213562987567	5.183057795451477	0.189	10.975258361010273	6.529955201977294	34059.6277129837	0.21490051108463518	3344
012621	2003	012621	EMRISE CORP	2003	20.74799788609293	5.48677339478781	0.181	12.226679133298099	8.52131875279483	37331.59884548152	0.06933362680900237	3344
012621	2004	012621	EMRISE CORP	2004	25.210431669860778	5.539645492966631	0.335	9.770247452447085	15.440184217413695	40407.10191055915	0.785257974598423	3344
012621	2005	012621	EMRISE CORP	2005	36.08116732674133	6.56451308590065	0.329	19.94000489591803	16.141162430823304	43090.198546961474	0.30374548879740065	3344
012621	2006	012621	EMRISE CORP	2006	42.11061480916585	6.280096308186195	0.305	27.65076533391437	14.459849475251476	46689.000254203434	0.9177073925275364	3344
012621	2007	012621	EMRISE CORP	2007	48.61939662519175	6.498847926267281	0.3	32.9321250686514	15.687271556540345	50649.58430392213	0.8490221536963402	3344
012621	2008	012621	EMRISE CORP	2008	58.514592511013205	6.740854022277899	0.36	34.863711453744486	23.65088105726872	53492.76274386406	0.12320287738332986	3344
012621	2009	012621	EMRISE CORP	2009	53.75	7.40101812947813	0.355	31.327085000000007	22.422914999999993	54873.0	0.032	3344
012621	2010	012621	EMRISE CORP	2010	30.91528921439699	5.469909786456549	0.213	19.91923644971372	10.996052764683272	58192.89052542133	0.07896165424665647	3344
012621	2011	012621	EMRISE CORP	2011	34.518576472889364	3.579688387567962	0.213	22.825301886986686	11.693274585902676	60953.890816253	0.14213885128601816	3344
012621	2012	012621	EMRISE CORP	2012	35.01949127264124	3.663562656368412	0.213	21.397562305215843	13.621928967425399	62223.95935118233	0.24099357666726756	3344
012621	2013	012621	EMRISE CORP	2013	32.723281150618604	4.217511403685163	0.203	19.30517039742301	13.418110753195592	62682.861773938734	3.392837031197207	3344
012621	2014	012621	EMRISE CORP	2014	36.42147401529773	7.826466099847395	0.194	22.387647437272136	14.033826578025593	64311.75515456021	0.32215186368083887	3344
012657	1998	012657	DATAWORLD SOLUTIONS INC	1998	4.1096887954934385	5.328258801141771	0.074	3.8361502811399566	0.2735385143534821	20045.981077018307	0.023614702513785085	3344
012657	2000	012657	DATAWORLD SOLUTIONS INC	2000	8.821142234979709	0.5377213552195359	0.098	5.905382559635752	2.915759675343957	28345.375960935697	0.30604264194144387	3344
012677	1998	012677	CALIFORNIA MICRO DEVICES CP	1998	17.131592224828744	24.72147646654475	0.26	10.73369986424139	6.397892360587353	20045.981077018307	7.097398840518107	3344
012677	1999	012677	CALIFORNIA MICRO DEVICES CP	1999	19.503024937287886	30.52087925930591	0.256	13.236478677881065	6.2665462594068195	23840.047218533273	1.3041474654377878	3344
012677	2000	012677	CALIFORNIA MICRO DEVICES CP	2000	22.182849978554223	32.007423756019264	0.256	14.367523837803951	7.8153261407502725	28345.375960935697	1.750110515398479	3344
012677	2001	012677	CALIFORNIA MICRO DEVICES CP	2001	32.35137572630365	33.121674961386645	0.285	20.340076437452872	12.011299288850777	31764.418883155668	2.240443338611174	3344
012677	2002	012677	CALIFORNIA MICRO DEVICES CP	2002	44.438093766895804	35.5940940388085	0.309	29.012147215571176	15.42594655132463	34059.6277129837	7.422418688550146	3344
012677	2003	012677	CALIFORNIA MICRO DEVICES CP	2003	24.345705109963816	43.77554401855738	0.234	28.088667018984513	-3.7429619090206954	37331.59884548152	3.1761404281076326	3344
012677	2004	012677	CALIFORNIA MICRO DEVICES CP	2004	35.614240968534446	43.150827840985805	0.205	29.85258807736793	5.761652891166515	40407.10191055915	1.9197605180099568	3344
012677	2005	012677	CALIFORNIA MICRO DEVICES CP	2005	52.071585315743	39.857874001251886	0.154	39.17766237399568	12.89392294174732	43090.198546961474	0.3143289553060209	3344
012677	2006	012677	CALIFORNIA MICRO DEVICES CP	2006	59.80045030322838	25.211056403716956	0.1	48.85090968515089	10.949540618077492	46689.000254203434	1.9755624072170836	3344
012677	2007	012677	CALIFORNIA MICRO DEVICES CP	2007	66.51231937579304	15.552633666957597	0.094	54.8510823248679	11.661237050925136	50649.58430392213	1.1188428142497768	3344
012677	2008	012677	CALIFORNIA MICRO DEVICES CP	2008	66.87185336689741	12.394080771414894	0.107	59.11854940213971	7.7533039647577	53492.76274386406	2.909177620793466	3344
012677	2009	012677	CALIFORNIA MICRO DEVICES CP	2009	59.217	15.16975733230617	0.108	53.938716	5.278283999999999	54873.0	2.375	3344
012677	2010	012677	CALIFORNIA MICRO DEVICES CP	2010	49.84421470046736	17.671558259850976	0.103	51.6052177959415	-1.7610030954741351	58192.89052542133	0.441198243103193	3344
012945	1998	012945	PLEXUS CORP	1998	206.4025008712478	57.095054667133574	2.345	139.88704727624537	66.51545359500241	20045.981077018307	11.070572538462446	3344
012945	1999	012945	PLEXUS CORP	1999	290.6383355467021	65.67361592240347	3.15	184.7698686734543	105.86846687324777	23840.047218533273	20.963133640552996	3344
012945	2000	012945	PLEXUS CORP	2000	495.98403114586426	100.35864767255217	5.6	279.637995314923	216.34603583094128	28345.375960935697	50.132051732541406	3344
012945	2001	012945	PLEXUS CORP	2001	785.2979877877493	184.15626495820905	5.6	532.1522243742331	253.14576341351622	31764.418883155668	61.705496494005885	3344
012945	2002	012945	PLEXUS CORP	2002	682.4770217038696	272.19111922725745	5.7	452.96215339460883	229.51486830926078	34059.6277129837	34.25046487545792	3344
012945	2003	012945	PLEXUS CORP	2003	656.8047481604942	335.4665898617512	4.8	465.45973413553395	191.3450140249603	37331.59884548152	24.621141253507954	3344
012945	2004	012945	PLEXUS CORP	2004	878.7542107440457	284.57091688108545	6.0	599.1911994394115	279.56301130463413	40407.10191055915	19.61626481849044	3344
012945	2005	012945	PLEXUS CORP	2005	1074.3759890191554	301.3930607664668	6.8	734.7578706253662	339.61811839378913	43090.198546961474	22.973530750261943	3344
012945	2006	012945	PLEXUS CORP	2006	1325.995024875622	321.57600625687184	7.8	867.7909721465666	458.2040527290553	46689.000254203434	36.19442108650742	3344
012945	2007	012945	PLEXUS CORP	2007	1464.1819593583698	343.820772360949	7.5	982.1719409882013	482.01001837016844	50649.58430392213	48.52410127404041	3344
012945	2008	012945	PLEXUS CORP	2008	1810.9089836375078	392.0281559230586	7.9	1256.3886485210824	554.5203351164254	53492.76274386406	53.9797510109591	3344
012945	2009	012945	PLEXUS CORP	2009	1616.622	436.9135942094549	7.1	1130.9177	485.7043000000001	54873.0	57.427	3344
012945	2010	012945	PLEXUS CORP	2010	2036.7339713112267	473.68971929316666	8.7	1392.2681934974814	644.4657778137454	58192.89052542133	73.70478211518532	3344
012945	2011	012945	PLEXUS CORP	2011	2296.9476729223074	544.3471083475486	9.0	1596.7191344362207	700.2285384860867	60953.890816253	71.60220460259137	3344
012945	2012	012945	PLEXUS CORP	2012	2372.6196476142477	597.4927767841078	9.6	1617.5158141592008	755.1038334550467	62223.95935118233	60.435306507775366	3344
012945	2013	012945	PLEXUS CORP	2013	2285.675742218757	613.9836183001651	9.2	1559.1144668540594	726.5612753646976	62682.861773938734	101.47726846116305	3344
012945	2014	012945	PLEXUS CORP	2014	2428.6929526260424	710.3086362079168	12.0	1493.812485320098	934.8804673059446	64311.75515456021	60.26178300441229	3344
013200	1998	013200	PHOTRONICS INC	1998	115.77036509183213	345.74764245585874	1.18	54.016311839087045	61.75405325274508	20045.981077018307	78.45748763179955	3344
013200	1999	013200	PHOTRONICS INC	1999	132.03600413162167	438.5226409080879	1.2	67.09564704146378	64.94035709015787	23840.047218533273	83.37903225806453	3344
013200	2000	013200	PHOTRONICS INC	2000	218.55686429773334	517.8136161125226	1.65	107.7175756375994	110.83928866013395	28345.375960935697	49.41908572594448	3344
013200	2001	013200	PHOTRONICS INC	2001	279.4099383473542	769.1827141401868	1.69	142.50217336664838	136.90776498070585	31764.418883155668	55.04410766794843	3344
013200	2002	013200	PHOTRONICS INC	2002	298.8113076388353	833.6969580469989	1.58	165.6775623696609	133.13374526917434	34059.6277129837	140.81216804551883	3344
013200	2003	013200	PHOTRONICS INC	2003	283.65705923005	978.5885492307511	1.42	153.63655433147687	130.0205048985731	37331.59884548152	51.749298409728716	3344
013200	2004	013200	PHOTRONICS INC	2004	333.9375416853107	1019.8883024571098	1.42	163.04539583104676	170.89214585426393	40407.10191055915	86.91634399505418	3344
013200	2005	013200	PHOTRONICS INC	2005	385.3524623844869	1111.5039023295903	1.44	197.42764969706508	187.92481268742182	43090.198546961474	128.43459946871	3344
013200	2006	013200	PHOTRONICS INC	2006	412.9670988125068	1175.5149769585253	1.5	213.21630896611833	199.75078984638847	46689.000254203434	98.25490257144934	3344
013200	2007	013200	PHOTRONICS INC	2007	399.1051644792909	1330.5518433179725	1.54	216.50279340189002	182.60237107740093	50649.58430392213	95.48405420757932	3344
013200	2008	013200	PHOTRONICS INC	2008	415.50110132158585	1537.3721198156684	1.44	244.07646318439268	171.42463813719317	53492.76274386406	104.44921358808509	3344
013200	2009	013200	PHOTRONICS INC	2009	361.353	1332.797569794725	1.3	206.50209999999998	154.85090000000002	54873.0	34.995	3344
013200	2010	013200	PHOTRONICS INC	2010	430.48738543710925	1292.2083810344243	1.3	231.55380662391	198.93357881319926	58192.89052542133	70.45452302225732	3344
013200	2011	013200	PHOTRONICS INC	2011	527.1003407488239	1417.0968106763178	1.35	272.4533915317226	254.64694921710125	60953.890816253	79.40533745890544	3344
013200	2012	013200	PHOTRONICS INC	2012	463.3049792744515	1493.1599185704592	1.3	249.249868858192	214.05511041625954	62223.95935118233	92.01210660644989	3344
013200	2013	013200	PHOTRONICS INC	2013	433.1028539773077	1531.080072381814	1.3	245.9882229836476	187.1146309936601	62682.861773938734	59.87160716296881	3344
013200	2014	013200	PHOTRONICS INC	2014	465.18897501097797	1640.469350825605	1.5	256.4811127110076	208.70786229997037	64311.75515456021	84.07794413572839	3344
013412	1999	013412	IMP INC	1999	23.85716393684521	125.30123992831437	0.228	15.854715655894935	8.002448280950276	23840.047218533273	0.792626728110599	3344
013412	2000	013412	IMP INC	2000	22.033719357286614	129.57469438899653	0.237	16.606570985515855	5.427148371770758	28345.375960935697	2.0742890176031197	3344
013412	2001	013412	IMP INC	2001	25.752916303206828	137.99555978433239	0.172	19.633730058991382	6.1191862442154425	31764.418883155668	1.5596019000226193	3344
013780	1999	013780	US TECHNOLOGIES INC	1999	2.2222222222222223	2.490055804059272	0.1	0.9868083222664895	1.2354138999557327	23840.047218533273	0.5472350230414746	3344
013780	2000	013780	US TECHNOLOGIES INC	2000	1.7763700550991457	2.5619255545672623	0.12	1.5211851265300735	0.25518492856907216	28345.375960935697	0.2391666572209061	3344
013780	2001	013780	US TECHNOLOGIES INC	2001	1.6610730813016543	2.615462032229954	0.106	2.870681727456865	-1.2096086461552102	31764.418883155668	0.04750056548292242	3344
013891	1998	013891	CIRCUIT SYSTEMS INC	1998	32.9846608375422	51.45398347315965	0.555	18.512509557718218	14.472151279823981	20045.981077018307	6.860071080254566	3344
013891	1999	013891	CIRCUIT SYSTEMS INC	1999	44.2514386896857	58.2175473956037	0.715	24.367971078648363	19.883467611037336	23840.047218533273	5.224654377880184	3344
013891	2000	013891	CIRCUIT SYSTEMS INC	2000	58.726450889174835	74.67897271268058	0.78	30.191243525025573	28.53520736414926	28345.375960935697	11.679494009498658	3344
013941	1998	013941	DALLAS SEMICONDUCTOR CORP	1998	178.20684202587216	417.0705860089573	1.53	85.1442266180502	93.06261540782198	20045.981077018307	89.6945438229842	3344
013941	1999	013941	DALLAS SEMICONDUCTOR CORP	1999	231.57798435886085	500.0440889336776	1.594	109.56868584919582	122.00929850966503	23840.047218533273	79.86866359447004	3344
013941	2000	013941	DALLAS SEMICONDUCTOR CORP	2000	342.6361806724076	584.7286316211878	1.991	162.5507961331618	180.08538453924578	28345.375960935697	131.44644820511658	3344
014005	1998	014005	NATIONAL MFG TECHNOLOGIES	1998	4.522166104039989	5.854519600872783	0.064	3.797342044077337	0.7248240599626529	20045.981077018307	0.3152562785590309	3344
014005	2000	014005	NATIONAL MFG TECHNOLOGIES	2000	3.3052888580949555	2.385986832620501	0.121	1.2196535682470564	2.0856352898478994	28345.375960935697	0.5168720175011052	3344
014005	2001	014005	NATIONAL MFG TECHNOLOGIES	2001	7.153628930910596	2.466589861751152	0.148	3.7838668184573536	3.369762112453242	31764.418883155668	0.2929201538113549	3344
014256	2003	014256	MAXIM INTEGRATED PRODUCTS	2003	937.614537176308	304.35094791207405	6.202	293.5989007683239	644.0156364079841	37331.59884548152	92.51086777086888	3344
014256	2004	014256	MAXIM INTEGRATED PRODUCTS	2004	1215.1114000354587	1847.9810733285933	7.599	331.56792573893796	883.5434742965207	40407.10191055915	251.2153060228419	3344
014256	2005	014256	MAXIM INTEGRATED PRODUCTS	2005	1461.530324092288	2176.6402487961477	7.98	370.5429573093433	1090.9873667829447	43090.198546961474	140.17272217342068	3344
014256	2006	014256	MAXIM INTEGRATED PRODUCTS	2006	1685.863565384755	2348.341626251811	9.096	683.7763808693757	1002.0871845153794	46689.000254203434	208.87497793972616	3344
014256	2007	014256	MAXIM INTEGRATED PRODUCTS	2007	1902.471450485768	2603.3620084269664	10.136	950.094214343882	952.3772361418859	50649.58430392213	407.51034650653247	3344
014256	2008	014256	MAXIM INTEGRATED PRODUCTS	2008	2018.5484188168657	2979.4985087816194	9.81	911.2088971050972	1107.3395217117684	53492.76274386406	214.48229952209206	3344
014256	2009	014256	MAXIM INTEGRATED PRODUCTS	2009	1646.015	2884.811059907834	8.765	804.459155	841.5558450000001	54873.0	135.429	3344
014256	2010	014256	MAXIM INTEGRATED PRODUCTS	2010	2020.7609201448602	2575.294235544322	9.2	840.0922572682949	1180.6686628765653	58192.89052542133	122.29284903518729	3344
014256	2011	014256	MAXIM INTEGRATED PRODUCTS	2011	2545.157969507613	2496.0357487608326	9.37	1040.5123585789436	1504.6456109286692	60953.890816253	169.45755173080641	3344
014256	2012	014256	MAXIM INTEGRATED PRODUCTS	2012	2472.1814796910194	2469.428093888526	9.065	1108.5080279357765	1363.673451755243	62223.95935118233	250.81169293243642	3344
014256	2013	014256	MAXIM INTEGRATED PRODUCTS	2013	2504.625659123084	2615.7141819012327	9.019	1082.6022917991747	1422.0233673239093	62682.861773938734	203.35623381011376	3344
014256	2014	014256	MAXIM INTEGRATED PRODUCTS	2014	2505.706524514159	2509.1964986537105	8.812	1166.6293802273212	1339.0771442868377	64311.75515456021	122.32817028818285	3344
014282	1998	014282	AMPHENOL CORP	1998	477.9519695401372	354.9813915347253	7.6	229.38502910227672	248.5669404378605	20045.981077018307	31.100563210654954	3344
014282	1999	014282	AMPHENOL CORP	1999	596.4898922827209	399.10058575297603	8.0	287.2669322709163	309.2229600118047	23840.047218533273	27.032258064516128	3344
014282	2000	014282	AMPHENOL CORP	2000	897.2265663664258	409.9029394060995	11.6	378.8626480583324	518.3639183080934	28345.375960935697	60.194053704816206	3344
014282	2001	014282	AMPHENOL CORP	2001	815.9520676552773	478.0504547794748	10.3	308.6382453390895	507.31382231618784	31764.418883155668	43.60438814747795	3344
014282	2002	014282	AMPHENOL CORP	2002	820.2687881362477	510.68154203026626	11.1	280.95566540511317	539.3131227311345	34059.6277129837	20.951129619525883	3344
014282	2003	014282	AMPHENOL CORP	2003	1007.7677954388388	547.5373418265277	13.9	292.5684783934305	715.1993170454083	37331.59884548152	33.231717382930725	3344
014282	2004	014282	AMPHENOL CORP	2004	1292.0935101775476	620.7089117174172	16.1	375.1981054817765	916.895404695771	40407.10191055915	48.0927125023048	3344
014282	2005	014282	AMPHENOL CORP	2005	1580.8106241421215	670.533722327098	22.7	258.2064328865807	1322.6041912555406	43090.198546961474	60.45381904388964	3344
014282	2006	014282	AMPHENOL CORP	2006	2243.73570105676	728.4071795857562	25.6	578.2835820895519	1665.452118967208	46689.000254203434	85.56375678677838	3344
014282	2007	014282	AMPHENOL CORP	2007	2699.6960399977274	781.7327188940092	32.0	478.1044637615291	2221.5915762361988	50649.58430392213	105.26251724417756	3344
014282	2008	014282	AMPHENOL CORP	2008	3182.4958700440525	904.1958832843249	30.0	866.238593455003	2316.2572765890495	53492.76274386406	107.5839319602174	3344
014282	2009	014282	AMPHENOL CORP	2009	2820.065	952.3310581344855	32.2	465.7174000000002	2354.3476	54873.0	63.058	3344
014282	2010	014282	AMPHENOL CORP	2010	3595.3031743783763	999.3528861497826	39.1	507.4467396362314	3087.8564347421448	58192.89052542133	108.03730938163154	3344
014282	2011	014282	AMPHENOL CORP	2011	4055.8230988583373	1060.753370427011	39.1	769.9193938582858	3285.903705000051	60953.890816253	96.90775478630825	3344
014282	2012	014282	AMPHENOL CORP	2012	4414.660111290537	1096.838718553875	41.6	846.8236939818763	3567.836417308661	62223.95935118233	122.48830611876997	3344
014282	2013	014282	AMPHENOL CORP	2013	4734.062044769076	1176.5455168332865	44.5	878.5079710293599	3855.5540737397164	62682.861773938734	148.71044036490596	3344
014282	2014	014282	AMPHENOL CORP	2014	5458.880957487005	1355.573926803538	50.7	955.6659824556024	4503.214975031402	64311.75515456021	193.01419683571177	3344
014324	1998	014324	ALTERA CORP	1998	340.35463685872264	257.68099242442815	1.151	181.06485256406924	159.2897842946534	20045.981077018307	28.278606260257636	3344
014324	1999	014324	ALTERA CORP	1999	493.8013870444149	279.38682082059967	1.398	262.48687147705476	231.31451556736016	23840.047218533273	34.35599078341014	3344
014324	2000	014324	ALTERA CORP	2000	908.5189217724109	300.74745020067013	1.947	478.8318110132304	429.6871107591805	28345.375960935697	99.18955374448839	3344
014324	2001	014324	ALTERA CORP	2001	620.500613569496	389.00235475034845	1.987	407.120804441356	213.37980912813995	31764.418883155668	74.37005202442886	3344
014324	2002	014324	ALTERA CORP	2002	549.6902757395536	434.588454771941	1.882	386.8366772225226	162.85359851703095	34059.6277129837	10.991103341535927	3344
014324	2003	014324	ALTERA CORP	2003	672.5533558274726	422.258064516129	1.995	400.1281190292288	272.4252367982438	37331.59884548152	15.298519782094317	3344
014324	2004	014324	ALTERA CORP	2004	858.0749195842866	421.33755760368666	2.164	479.0225130227022	379.0524065615844	40407.10191055915	26.782286141932126	3344
014324	2005	014324	ALTERA CORP	2005	982.4525052237697	438.4078341013825	2.361	573.3420699242007	409.110435299569	43090.198546961474	27.42070337718416	3344
014324	2006	014324	ALTERA CORP	2006	1167.097904637397	447.73617511520735	2.654	742.8657279296946	424.2321767077024	46689.000254203434	37.87515442191702	3344
014324	2007	014324	ALTERA CORP	2007	1196.47368520728	488.1076358140578	2.651	767.4513389390754	429.0223462682045	50649.58430392213	31.61872109064351	3344
014324	2008	014324	ALTERA CORP	2008	1344.4225928256762	488.48387096774195	2.76	751.8869965387034	592.5355962869729	53492.76274386406	40.01410871660358	3344
014324	2009	014324	ALTERA CORP	2009	1195.413	495.7426068032146	2.551	730.157977	465.25502300000005	54873.0	11.06	3344
014324	2010	014324	ALTERA CORP	2010	1977.0833754830355	472.79348563673375	2.666	922.5986646974325	1054.4847107856033	58192.89052542133	12.280511276711247	3344
014324	2011	014324	ALTERA CORP	2011	2125.2792390286086	456.27721052455774	2.884	1040.3919743872184	1084.8872646413902	60953.890816253	30.76000773544769	3344
014324	2012	014324	ALTERA CORP	2012	1833.9641854293736	491.26590876192813	3.129	1000.4824125978421	833.4817728315317	62223.95935118233	57.79386510052468	3344
014324	2013	014324	ALTERA CORP	2013	1777.397976979421	517.6628813761538	3.094	1057.6175260058678	719.7804509735531	62682.861773938734	39.942561099222885	3344
014324	2014	014324	ALTERA CORP	2014	1973.0696567711364	521.2494939113644	3.091	1165.2494143357533	807.8202424353831	64311.75515456021	37.141617590045605	3344
014417	1998	014417	MICRONETICS INC	1998	1.9609576963688475	2.714550665992244	0.047	0.7410375910909062	1.2199201052779411	20045.981077018307	0.2396892305149186	3344
014417	1999	014417	MICRONETICS INC	1999	2.826619448133392	2.9167980823818835	0.045	1.3713472037774828	1.4552722443559094	23840.047218533273	0.11866359447004608	3344
014417	2000	014417	MICRONETICS INC	2000	3.0004289155036457	3.0484348428544434	0.056	1.1108673991223725	1.8895615163812731	28345.375960935697	0.04987361572379085	3344
014417	2001	014417	MICRONETICS INC	2001	4.587725653118855	3.802166934189406	0.061	2.0660962195248165	2.521629433594039	31764.418883155668	0.17643067179371183	3344
014417	2002	014417	MICRONETICS INC	2002	6.019155016606164	3.997792937399679	0.066	2.783345948868464	3.2358090677376996	34059.6277129837	0.6903539734325068	3344
014417	2003	014417	MICRONETICS INC	2003	6.208382454571324	4.666699355218318	0.073	2.5554957518598314	3.6528867027114917	37331.59884548152	2.041490122709514	3344
014417	2004	014417	MICRONETICS INC	2004	9.013313971649767	6.74055254857199	0.091	3.9229773654039364	5.09033660624583	40407.10191055915	1.203917612989295	3344
014417	2005	014417	MICRONETICS INC	2005	12.092917530009355	8.092868175243325	0.095	5.637942490448588	6.454975039560767	43090.198546961474	0.6413580704223861	3344
014417	2006	014417	MICRONETICS INC	2006	12.763736064204524	8.976684890534212	0.087	6.153403602425827	6.610332461778697	46689.000254203434	0.8097418169360616	3344
014417	2007	014417	MICRONETICS INC	2007	25.480559816677083	9.95618395375382	0.125	13.64872734503721	11.83183247163987	50649.58430392213	1.0356650166355594	3344
014417	2008	014417	MICRONETICS INC	2008	23.29491818753933	12.179723502304146	0.112	13.552352108244177	9.742566079295155	53492.76274386406	0.6011108130396335	3344
014417	2009	014417	MICRONETICS INC	2009	32.625	11.002238083042903	0.167	18.150208999999997	14.474791000000003	54873.0	1.086	3344
014417	2010	014417	MICRONETICS INC	2010	30.698808343617863	11.102056367542625	0.202	18.421862544762988	12.276945798854877	58192.89052542133	1.0195923604599515	3344
014417	2011	014417	MICRONETICS INC	2011	35.89495465261121	12.59563777549389	0.189	20.305243002295683	15.589711650315527	60953.890816253	1.092631986076194	3344
014417	2012	014417	MICRONETICS INC	2012	36.30519527272353	13.920292337558527	0.188	20.379696162430697	15.925499110292831	62223.95935118233	0.9184322134406102	3344
014417	2013	014417	MICRONETICS INC	2013	47.15935903485915	14.519597500608617	0.208	26.796594103284846	20.362764931574304	62682.861773938734	1.263280399444382	3344
014938	1998	014938	LOGIC DEVICES INC	1998	4.97417465527196	20.278429152853022	0.05	3.707120305014747	1.2670543502572134	20045.981077018307	1.0921799912625603	3344
014938	1999	014938	LOGIC DEVICES INC	1999	7.62697358713295	21.001776843961974	0.043	4.834697948944961	2.7922756381879883	23840.047218533273	0.49539170506912444	3344
014938	2000	014938	LOGIC DEVICES INC	2000	7.777227886106437	14.021540593311078	0.031	5.49497772938731	2.2822501567191265	28345.375960935697	0.2811058340795484	3344
014938	2001	014938	LOGIC DEVICES INC	2001	7.3975782485917465	9.838436833460001	0.042	5.322014577819831	2.0755636707719147	31764.418883155668	0.18434743270753223	3344
014938	2002	014938	LOGIC DEVICES INC	2002	5.076851780335213	8.760632418665	0.031	4.9687132154167	0.10813856491851377	34059.6277129837	0.04787938847999643	3344
014938	2003	014938	LOGIC DEVICES INC	2003	4.072523273303792	9.00254059427814	0.031	4.608808488149925	-0.5362852148461318	37331.59884548152	0.3598745391514885	3344
014938	2004	014938	LOGIC DEVICES INC	2004	3.7274055062601836	4.943726450409318	0.016	4.10835563585401	-0.3809501295938266	40407.10191055915	0.3101985921756201	3344
014938	2005	014938	LOGIC DEVICES INC	2005	3.067817207403327	5.264899850449876	0.016	3.377665871079987	-0.3098486636766598	43090.198546961474	0.5725655381163547	3344
014938	2006	014938	LOGIC DEVICES INC	2006	4.213421941387951	6.091830950431442	0.02	2.971874205614264	1.2415477357736866	46689.000254203434	0.20451171530308224	3344
014938	2007	014938	LOGIC DEVICES INC	2007	4.437247883642975	6.210811833722325	0.021	4.1415554040490115	0.295692479593963	50649.58430392213	0.3966160837458411	3344
014938	2008	014938	LOGIC DEVICES INC	2008	3.2960981749528	4.871839887640449	0.015	6.0199024543738195	-2.723804279421019	53492.76274386406	0.272238616153487	3344
014938	2009	014938	LOGIC DEVICES INC	2009	3.013	4.944953790640303	0.014	2.736778	0.27622199999999975	54873.0	0.31	3344
014938	2010	014938	LOGIC DEVICES INC	2010	2.2184231290590164	2.170323456231622	0.013	2.301537621138244	-0.0831144920792278	58192.89052542133	0.41553570547302965	3344
016401	1998	016401	CIRRUS LOGIC INC	1998	477.0557546566244	347.7984260462379	2.557	416.13539294575384	60.920361710870566	20045.981077018307	36.27454453142527	3344
016401	1999	016401	CIRRUS LOGIC INC	1999	563.2403718459495	357.3536983010125	1.774	461.75438453593034	101.48598731001918	23840.047218533273	31.842165898617512	3344
016401	2000	016401	CIRRUS LOGIC INC	2000	414.4676498729751	353.6973624458436	1.342	405.51456531063377	8.953084562341289	28345.375960935697	14.355666889586615	3344
016401	2001	016401	CIRRUS LOGIC INC	2001	417.2272572704289	223.79138834158297	1.255	347.23295311737655	69.99430415305233	31764.418883155668	9.513684686722462	3344
016401	2002	016401	CIRRUS LOGIC INC	2002	601.4312195875492	229.91253784420203	1.356	499.02484591024955	102.40637367729973	34059.6277129837	20.55584629602824	3344
016401	2003	016401	CIRRUS LOGIC INC	2003	339.46827106792955	251.47833130822195	1.203	304.10346111630554	35.364809951624025	37331.59884548152	9.452484454960656	3344
016401	2004	016401	CIRRUS LOGIC INC	2004	221.19513368848513	338.1175055537145	0.905	196.8507391491553	24.34439453932985	40407.10191055915	16.710593390383846	3344
016401	2005	016401	CIRRUS LOGIC INC	2005	171.65263461588899	326.9871209572781	0.767	150.96289680978484	20.689737806104166	43090.198546961474	2.449014150094722	3344
016401	2006	016401	CIRRUS LOGIC INC	2006	176.94374841122854	185.94124423963132	0.603	153.76631350546538	23.177434905763157	46689.000254203434	3.7590706655454857	3344
016401	2007	016401	CIRRUS LOGIC INC	2007	183.41192735261254	72.80005344675924	0.424	146.1608847982122	37.25104255440032	50649.58430392213	2.22957072141524	3344
016401	2008	016401	CIRRUS LOGIC INC	2008	179.2636878539962	61.67391184724592	0.456	135.51919446192574	43.74449339207048	53492.76274386406	1.9682653233578746	3344
016401	2009	016401	CIRRUS LOGIC INC	2009	181.885	60.76487096241677	0.473	145.553071	36.331929	54873.0	3.699	3344
016401	2010	016401	CIRRUS LOGIC INC	2010	176.66659922714305	71.19572992901557	0.479	132.87681429178383	43.78978493535923	58192.89052542133	3.02028327493461	3344
016401	2011	016401	CIRRUS LOGIC INC	2011	227.49770946787595	69.92375188451068	0.505	166.578768568752	60.91894089912394	60953.890816253	3.5331657319667373	3344
016401	2012	016401	CIRRUS LOGIC INC	2012	380.1271304115281	71.93264681913914	0.57	253.18934819950013	126.93778221202803	62223.95935118233	19.032799795060576	3344
016401	2013	016401	CIRRUS LOGIC INC	2013	437.88649746609497	88.39266249338192	0.676	303.05099407045697	134.835503395638	62682.861773938734	33.73878439764238	3344
016401	2014	016401	CIRRUS LOGIC INC	2014	826.9620007556957	124.6977197111093	0.652	562.7295405573767	264.232460198319	64311.75515456021	48.83231487806229	3344
016597	1998	016597	LATTICE SEMICONDUCTOR CORP	1998	106.15647090032407	71.62184291742771	0.531	60.35265561525698	45.80381528506708	20045.981077018307	12.469743662404213	3344
016597	1999	016597	LATTICE SEMICONDUCTOR CORP	1999	159.18489006935224	83.78812199036918	0.916	92.19763553194629	66.98725453740593	23840.047218533273	18.058755760368665	3344
016597	2000	016597	LATTICE SEMICONDUCTOR CORP	2000	374.64713451450064	155.0057071320741	0.898	209.2147626117655	165.43237190273516	28345.375960935697	29.338154449519966	3344
016597	2001	016597	LATTICE SEMICONDUCTOR CORP	2001	218.31689755607138	179.2698333982738	1.004	126.60978754232151	91.70711001374987	31764.418883155668	15.551911332277765	3344
016597	2002	016597	LATTICE SEMICONDUCTOR CORP	2002	176.97227156870318	180.6479036079027	1.073	125.02272263844907	51.949548930254124	34059.6277129837	19.431237403823673	3344
016597	2003	016597	LATTICE SEMICONDUCTOR CORP	2003	170.46383999349567	200.35399230943224	1.048	135.0916964104232	35.37214358307248	37331.59884548152	10.777527100643812	3344
016597	2004	016597	LATTICE SEMICONDUCTOR CORP	2004	190.66080187763302	202.316026233451	1.008	151.87477268314095	38.786029194492045	40407.10191055915	11.632447206585754	3344
016597	2005	016597	LATTICE SEMICONDUCTOR CORP	2005	184.52365340397444	211.87631529134052	0.909	168.291164616501	16.232488787473436	43090.198546961474	11.944500301628795	3344
016597	2006	016597	LATTICE SEMICONDUCTOR CORP	2006	222.8447180157606	213.83714327071897	0.96	168.2963648908741	54.548353124886525	46689.000254203434	14.194358798675346	3344
016597	2007	016597	LATTICE SEMICONDUCTOR CORP	2007	216.56818741359393	225.67631757520925	0.883	174.12667178001252	42.441515633581425	50649.58430392213	11.196543049582083	3344
016597	2008	016597	LATTICE SEMICONDUCTOR CORP	2008	218.55530207677782	219.69350825605065	0.753	172.8266598489616	45.72864222781623	53492.76274386406	10.062893081761006	3344
016597	2009	016597	LATTICE SEMICONDUCTOR CORP	2009	194.42	219.09635828997963	0.708	149.104916	45.315083999999985	54873.0	7.03	3344
016597	2010	016597	LATTICE SEMICONDUCTOR CORP	2010	301.2199809820543	226.62557603686636	0.749	190.82791389321622	110.3920670888381	58192.89052542133	13.6761585155209	3344
016597	2011	016597	LATTICE SEMICONDUCTOR CORP	2011	327.7427191962034	245.157143543659	0.852	213.93578274431485	113.80693645188852	60953.890816253	12.571069425643008	3344
016597	2012	016597	LATTICE SEMICONDUCTOR CORP	2012	287.23244499758283	260.9546252316605	0.739	226.4787714841138	60.75367351346905	62223.95935118233	12.896951526134519	3344
016597	2013	016597	LATTICE SEMICONDUCTOR CORP	2013	341.1282545805207	241.13709677419354	0.783	249.70571205810538	91.42254252241533	62682.861773938734	11.73180162931261	3344
016597	2014	016597	LATTICE SEMICONDUCTOR CORP	2014	373.8927524687765	237.05948880343814	0.784	266.30394902116973	107.58880344760676	64311.75515456021	9.477172448169549	3344
017110	1998	017110	SOLECTRON CORP	1998	2750.6951777085405	813.5746890048155	24.857	2032.2913436981476	718.4038340103929	20045.981077018307	288.5421463403115	3344
017110	1999	017110	SOLECTRON CORP	1999	4952.870001475579	1053.9986270808306	37.936	3681.2908508189457	1271.5791506566331	23840.047218533273	490.5529953917051	3344
017110	2000	017110	SOLECTRON CORP	2000	9328.912204295753	1456.7301201566088	65.273	6823.143628625161	2505.768575670593	28345.375960935697	573.5465808235948	3344
017110	2001	017110	SOLECTRON CORP	2001	13818.102517852654	2222.355711470998	60.0	11184.455253781214	2633.6472640714396	31764.418883155668	607.1024655055417	3344
017110	2002	017110	SOLECTRON CORP	2002	9481.88769599135	2965.7704887062687	73.0	6837.737699853249	2644.149996138101	34059.6277129837	269.2380496386777	3344
017110	2003	017110	SOLECTRON CORP	2003	8954.835562421236	2845.73732718894	66.0	6372.8151550876055	2582.020407333631	37331.59884548152	150.2228580861718	3344
017110	2004	017110	SOLECTRON CORP	2004	9825.744847906657	2144.2254287430715	57.0	7213.287799606574	2612.4570483000834	40407.10191055915	162.25772513801667	3344
017110	2005	017110	SOLECTRON CORP	2005	9128.351736739494	1885.789419992519	53.0	6536.128377964873	2592.2233587746205	43090.198546961474	159.17533628964833	3344
017110	2006	017110	SOLECTRON CORP	2006	9587.736499981844	2061.027169785657	59.0	6571.800668191889	3015.935831789955	46689.000254203434	203.9926500358155	3344
018564	2014	018564	APPLIED OPTOELECTRONICS INC	2014	133.2158941208909	62.737731116449886	1.447	26.201942342452764	107.01395177843814	64311.75515456021	37.96499713847915	3344
019518	2014	019518	KNOWLES CORP	2014	1165.507592700387	766.3613482702463	13.0	164.1207887830234	1001.3868039173635	64311.75515456021	77.44567725737073	3344
020692	2014	020692	KIMBALL ELECTRONICS INC	2014	757.2582539342136	244.28016552541618	3.8	469.4384363224165	287.819817611797	64311.75515456021	18.834345634796094	3344
021238	1998	021238	VICOR CORP	1998	85.63403431936042	154.79553324773354	1.316	43.663649461906964	41.97038485745346	20045.981077018307	42.96931269408334	3344
021238	1999	021238	VICOR CORP	1999	112.07732034823668	216.15214785844952	1.668	48.16633436623876	63.910985981997925	23840.047218533273	17.081797235023043	3344
021238	2000	021238	VICOR CORP	2000	169.97129565475603	220.59339887640448	2.007	70.6287294203042	99.34256623445182	28345.375960935697	19.023383924826863	3344
021238	2001	021238	VICOR CORP	2001	144.82457826337654	234.8476304886121	1.65	81.3490766887946	63.475501574581955	31764.418883155668	25.31780140239765	3344
021238	2002	021238	VICOR CORP	2002	117.85819108673824	261.70698479325455	1.54	66.58269869467831	51.27549239205994	34059.6277129837	11.992116603013061	3344
021238	2003	021238	VICOR CORP	2003	123.11150859791047	266.15046374165024	1.27	78.38829220700028	44.72321639091019	37331.59884548152	6.37979420018709	3344
021238	2004	021238	VICOR CORP	2004	144.85803777216813	264.4733048200298	1.18	83.6163178468007	61.24171992536744	40407.10191055915	5.446913740929945	3344
021238	2005	021238	VICOR CORP	2005	156.80139183955376	262.7324572278701	1.1	93.47994859286071	63.32144324669306	43090.198546961474	9.465852445309938	3344
021238	2006	021238	VICOR CORP	2006	174.3535969786106	262.41770387812966	1.071	107.8473354032756	66.50626157533499	46689.000254203434	5.816645384990709	3344
021238	2007	021238	VICOR CORP	2007	185.43169895649868	274.0798016618187	1.114	118.27287654110562	67.15882241539306	50649.58430392213	9.997565527874706	3344
021238	2008	021238	VICOR CORP	2008	201.94304594084326	288.6474217495987	1.092	134.48631214600377	67.45673379483951	53492.76274386406	8.211869206235656	3344
021238	2009	021238	VICOR CORP	2009	197.959	300.6005172522551	0.968	126.61793600000001	71.34106399999999	54873.0	10.643	3344
021238	2010	021238	VICOR CORP	2010	253.6397110890809	321.75272038701473	1.07	151.5742205677059	102.06549052137497	58192.89052542133	11.94591126684104	3344
021238	2011	021238	VICOR CORP	2011	260.41857544343674	334.57842107311	1.045	170.88867499150703	89.5299004519297	60953.890816253	7.2191065557919165	3344
021238	2012	021238	VICOR CORP	2012	224.7482591567839	343.92825181899536	1.046	151.31829299651318	73.42996616027071	62223.95935118233	7.0172775316185465	3344
021238	2013	021238	VICOR CORP	2013	204.3127680091918	342.57995332113796	1.002	150.3906481462484	53.92211986294341	62682.861773938734	5.79926418140181	3344
021238	2014	021238	VICOR CORP	2014	230.51887707688692	349.4947328581341	1.014	167.9139078663848	62.60496921050213	64311.75515456021	6.579651817527277	3344
021743	1998	021743	NVE CORP	1998	4.551294388123983	0.31626173723307754	0.083	2.4635573957233445	2.0877369924006386	20045.981077018307	0.2656654032800822	3344
021743	1999	021743	NVE CORP	1999	3.5089272539471743	2.0668409489794666	0.048	3.6035012542422904	-0.09457400029511619	23840.047218533273	0.2085253456221198	3344
021743	2002	021743	NVE CORP	2002	5.534872943539044	2.2394156374645586	0.061	3.1745446821657537	2.3603282613732905	34059.6277129837	0.40085069425113296	3344
021743	2003	021743	NVE CORP	2003	5.68722305784788	2.366359447004608	0.059	5.017241351274442	0.6699817065734377	37331.59884548152	0.24762009574643704	3344
021743	2004	021743	NVE CORP	2004	7.975719097993194	3.1232718894009217	0.063	4.668549646677416	3.307169451315777	40407.10191055915	0.45879022549051507	3344
021743	2005	021743	NVE CORP	2005	10.500869899721106	3.443546467474468	0.07	5.598753289444925	4.902116610276182	43090.198546961474	0.819160307767206	3344
021743	2006	021743	NVE CORP	2006	10.544903221120673	4.203800045238634	0.064	5.8164215419254095	4.728481679195264	46689.000254203434	0.8792965627498002	3344
021743	2007	021743	NVE CORP	2007	11.524913357195613	5.070761282276832	0.05	6.112862905516731	5.4120504516788825	50649.58430392213	0.07506289052990342	3344
021743	2008	021743	NVE CORP	2008	16.18647734424166	5.080782549633111	0.048	6.66083228445563	9.52564505978603	53492.76274386406	0.31993005255993723	3344
021743	2009	021743	NVE CORP	2009	20.529	5.425959536349365	0.05	7.17535	13.35365	54873.0	0.818	3344
021743	2010	021743	NVE CORP	2010	23.642948186214014	6.282221158235813	0.05	6.848180144455458	16.79476804175855	58192.89052542133	0.3967823125894488	3344
021743	2011	021743	NVE CORP	2011	28.976003458960868	6.434767116881382	0.052	8.627924932313487	20.348078526647384	60953.890816253	0.29588087410558883	3344
021743	2012	021743	NVE CORP	2012	32.088086152453634	6.862700746437457	0.058	9.880616726494758	22.207469425958877	62223.95935118233	0.6954657153429414	3344
021743	2013	021743	NVE CORP	2013	29.31841030796693	7.697539190460538	0.058	10.527589815137777	18.790820492829152	62682.861773938734	1.389045312910613	3344
021743	2014	021743	NVE CORP	2014	27.606384608314695	9.28409862022167	0.054	7.953489987030627	19.65289462128407	64311.75515456021	1.6836819465726365	3344
021763	1998	021763	THREE-FIVE SYSTEMS INC	1998	49.43850030948802	52.96323234349919	0.867	27.32632884792435	22.112171461563673	20045.981077018307	9.586388485471055	3344
021763	1999	021763	THREE-FIVE SYSTEMS INC	1999	87.0048694112439	61.72620069136286	0.934	55.43031193743543	31.574557473808476	23840.047218533273	14.443548387096776	3344
021763	2000	021763	THREE-FIVE SYSTEMS INC	2000	106.03055198125969	77.77464512491113	1.121	61.593799861427314	44.43675211983238	28345.375960935697	9.982657583623318	3344
021763	2001	021763	THREE-FIVE SYSTEMS INC	2001	88.07013912503511	86.14455613240547	1.5	56.10575572541655	31.964383399618555	31764.418883155668	7.73919927618186	3344
021763	2002	021763	THREE-FIVE SYSTEMS INC	2002	67.98949563605468	86.16419357610123	1.354	36.745703251718545	31.24379238433614	34059.6277129837	5.156498791880547	3344
021763	2003	021763	THREE-FIVE SYSTEMS INC	2003	129.2881824464409	77.22860300831371	1.5	83.10500426846619	46.18317817797471	37331.59884548152	2.9098112584603535	3344
021763	2004	021763	THREE-FIVE SYSTEMS INC	2004	134.19250804157133	54.18087557603687	1.8	75.3199321215396	58.872575920031736	40407.10191055915	8.808121563140599	3344
022325	1998	022325	XILINX INC	1998	295.5184054345056	157.25195518399565	1.277	170.02111644551715	125.49728898898846	20045.981077018307	31.64724357384908	3344
022325	1999	022325	XILINX INC	1999	362.16201859229744	189.554107294083	1.391	207.07222605872803	155.0897925335694	23840.047218533273	34.21658986175115	3344
022325	2000	022325	XILINX INC	2000	436.82272592299313	196.58801480128793	1.491	253.9586287901283	182.86409713286483	28345.375960935697	46.384729605658386	3344
022325	2001	022325	XILINX INC	2001	754.7592294158522	225.2414820510356	1.939	427.0030523234325	327.75617709241976	31764.418883155668	162.5718163311468	3344
022325	2002	022325	XILINX INC	2002	1281.6544373213871	397.8392547199887	2.678	787.9147555418243	493.7396817795629	34059.6277129837	247.9372891358327	3344
022325	2003	022325	XILINX INC	2003	825.7075490873611	638.9677419354839	2.611	661.659680474816	164.0478686125452	37331.59884548152	104.42194464315193	3344
022325	2004	022325	XILINX INC	2004	975.9445152684323	733.1274157532617	2.612	636.4230989387659	339.52141632966635	40407.10191055915	49.9452271716613	3344
022325	2005	022325	XILINX INC	2005	1222.0963271872076	692.3207419135942	2.77	742.7090251003226	479.3873020868851	43090.198546961474	43.43454655137744	3344
022325	2006	022325	XILINX INC	2006	1428.290118749319	647.7468850560634	3.05	888.3989268983548	539.8911918509641	46689.000254203434	63.717337818057246	3344
022325	2007	022325	XILINX INC	2007	1634.6135636232789	701.2793817991516	3.295	1013.1760932144007	621.4374704088783	50649.58430392213	68.00292136655035	3344
022325	2008	022325	XILINX INC	2008	1812.0073552548772	741.9746350588472	3.353	1223.1088735053493	588.8984817495278	53492.76274386406	110.06488022494462	3344
022325	2009	022325	XILINX INC	2009	1841.372	836.6224618940187	3.415	1168.7857050000002	672.5862949999998	54873.0	45.593	3344
022325	2010	022325	XILINX INC	2010	1846.3430918323993	868.8119738072966	3.145	1144.8800554352883	701.4630363971108	58192.89052542133	38.601391699156096	3344
022325	2011	022325	XILINX INC	2011	1887.557005939942	842.5340838837732	2.948	1177.8141837984745	709.7428221414673	60953.890816253	27.221040417714175	3344
022325	2012	022325	XILINX INC	2012	2437.123931579976	756.6173124345148	3.099	1362.6692202462382	1074.4547113337378	62223.95935118233	61.651659914418815	3344
022325	2013	022325	XILINX INC	2013	2298.709452389257	791.5808523923927	3.265	1365.9184328771619	932.7910195120951	62682.861773938734	65.76472575740512	3344
022325	2014	022325	XILINX INC	2014	2214.6502864495574	818.484952297902	3.329	1340.2754163985987	874.3748700509585	64311.75515456021	27.93675115845441	3344
023084	1998	023084	BENCHMARK ELECTRONICS INC	1998	272.5913249728223	66.26909215719924	2.28	202.2637254035048	70.32759956931753	20045.981077018307	14.409691473911659	3344
023084	1999	023084	BENCHMARK ELECTRONICS INC	1999	518.1283753873396	99.20100150962848	5.856	343.29072096797995	174.8376544193596	23840.047218533273	27.502304147465438	3344
023084	2000	023084	BENCHMARK ELECTRONICS INC	2000	1125.0282094427398	211.1754529290211	6.158	880.480353690323	244.54785575241678	28345.375960935697	54.38944492932682	3344
023084	2001	023084	BENCHMARK ELECTRONICS INC	2001	943.9729733725624	238.9855123800078	4.233	751.2864430711002	192.6865303014622	31764.418883155668	19.919701425016964	3344
023084	2002	023084	BENCHMARK ELECTRONICS INC	2002	1258.9943616281764	242.57603686635946	6.38	970.8945238279138	288.09983780026266	34059.6277129837	8.787537997305394	3344
023084	2003	023084	BENCHMARK ELECTRONICS INC	2003	1495.8502378145452	278.16013824884794	6.274	1168.6320712224071	327.2181665921379	37331.59884548152	20.63500797886975	3344
023084	2004	023084	BENCHMARK ELECTRONICS INC	2004	1689.6502233066262	257.2983870967742	7.393	1290.6858147525897	398.9644085540366	40407.10191055915	17.954641590472782	3344
023084	2005	023084	BENCHMARK ELECTRONICS INC	2005	1973.4265306300872	288.213133640553	8.972	1477.1457112632343	496.2808193668528	43090.198546961474	49.111517986601335	3344
023084	2006	023084	BENCHMARK ELECTRONICS INC	2006	2639.452373170643	331.4550691244239	9.548	2050.5837636634346	588.8686095072085	46689.000254203434	43.88800647793454	3344
023084	2007	023084	BENCHMARK ELECTRONICS INC	2007	2761.1300494290094	370.4838709677419	10.92	2069.4592352707227	691.6708141582867	50649.58430392213	17.247220644323622	3344
023084	2008	023084	BENCHMARK ELECTRONICS INC	2008	2546.9703823159216	428.0301055280369	10.522	1861.7450047199495	685.2253775959721	53492.76274386406	35.64239371267897	3344
023084	2009	023084	BENCHMARK ELECTRONICS INC	2009	2089.253	436.61214354908753	9.849	1447.9228230000003	641.3301769999998	54873.0	22.291	3344
023084	2010	023084	BENCHMARK ELECTRONICS INC	2010	2429.9906933457423	447.20959665437744	9.99	1710.7868776174964	719.2038157282459	58192.89052542133	35.313625820460935	3344
023084	2011	023084	BENCHMARK ELECTRONICS INC	2011	2319.3876815697095	473.654322346338	9.985	1623.615797980214	695.7718835894956	60953.890816253	69.03500290079289	3344
023084	2012	023084	BENCHMARK ELECTRONICS INC	2012	2538.6482622424733	524.5617124305288	9.949	1793.5830986494966	745.0651635929768	62223.95935118233	45.45765059726558	3344
023084	2013	023084	BENCHMARK ELECTRONICS INC	2013	2571.3155788998547	556.9977439057943	11.023	1748.9532550934575	822.3623238063971	62682.861773938734	25.180200473026243	3344
023084	2014	023084	BENCHMARK ELECTRONICS INC	2014	2856.388182551597	576.8164513714898	10.94	1993.8814783043822	862.5067042472145	64311.75515456021	40.80990270829103	3344
023616	1998	023616	ADVANCED PHOTONIX INC  -CL A	1998	3.315943054204616	4.028468854317566	0.066	2.6066828606055563	0.7092601935990596	20045.981077018307	0.3908233266031432	3344
023616	1999	023616	ADVANCED PHOTONIX INC  -CL A	1999	4.13634351482957	4.177116773675762	0.061	2.538084108012395	1.5982594068171756	23840.047218533273	0.18778801843317974	3344
023616	2000	023616	ADVANCED PHOTONIX INC  -CL A	2000	4.823649741001023	4.2473414927768856	0.065	2.5384275297766337	2.2852222112243887	28345.375960935697	0.16662321616811943	3344
023616	2001	023616	ADVANCED PHOTONIX INC  -CL A	2001	4.501973771752147	3.7432283306581056	0.057	3.1526878779366316	1.3492858938155157	31764.418883155668	0.15154942320741915	3344
023616	2002	023616	ADVANCED PHOTONIX INC  -CL A	2002	5.256816250868927	4.046535154274153	0.052	3.336646327334518	1.9201699235344094	34059.6277129837	0.15143248449487248	3344
023616	2003	023616	ADVANCED PHOTONIX INC  -CL A	2003	5.635188422293589	4.3880218862025275	0.05	3.472661490304484	2.1625269319891047	37331.59884548152	0.45892257745006326	3344
023616	2004	023616	ADVANCED PHOTONIX INC  -CL A	2004	7.722441260648222	5.15002804262479	0.083	4.740970222968923	2.9814710376792983	40407.10191055915	0.07375351142637122	3344
023616	2005	023616	ADVANCED PHOTONIX INC  -CL A	2005	10.841835619552198	6.406835395272364	0.096	5.681405128474135	5.1604304910780625	43090.198546961474	0.31538730195688297	3344
023616	2006	023616	ADVANCED PHOTONIX INC  -CL A	2006	13.43919090677997	6.188103198132846	0.156	5.216062025638232	8.223128881141736	46689.000254203434	0.20035919316494857	3344
023616	2007	023616	ADVANCED PHOTONIX INC  -CL A	2007	22.333011381929058	6.41803772070626	0.152	15.471348218851205	6.8616631630778535	50649.58430392213	0.26677757039681893	3344
023616	2008	023616	ADVANCED PHOTONIX INC  -CL A	2008	23.194619257394585	9.35496440083596	0.162	13.922081497797354	9.272537759597233	53492.76274386406	2.421333969219152	3344
023616	2009	023616	ADVANCED PHOTONIX INC  -CL A	2009	23.215	11.469897226335892	0.14	16.650779999999997	6.564220000000002	54873.0	1.151	3344
023616	2010	023616	ADVANCED PHOTONIX INC  -CL A	2010	30.019017945657232	11.260601908083922	0.153	19.211687943836367	10.80733000182087	58192.89052542133	0.7116419088979914	3344
023616	2011	023616	ADVANCED PHOTONIX INC  -CL A	2011	21.69571438865955	11.396266157958012	0.153	12.757872739064638	8.937841649594912	60953.890816253	0.1257010249468188	3344
023616	2012	023616	ADVANCED PHOTONIX INC  -CL A	2012	29.661705563498348	11.2	0.185	16.342058977813892	13.319646585684456	62223.95935118233	1.324515878061045	3344
023616	2013	023616	ADVANCED PHOTONIX INC  -CL A	2013	30.25810952214859	12.505	0.157	20.702092779909314	9.556016742239276	62682.861773938734	0.5471712279911402	3344
023616	2014	023616	ADVANCED PHOTONIX INC  -CL A	2014	24.150608130878343	12.858905394068007	0.134	17.90102018933243	6.2495879415459115	64311.75515456021	0.37661306699651076	3344
023700	1999	023700	ZILOG INC	1999	144.68821012247307	532.2043037720706	1.351	84.8108360631548	59.87737405931828	23840.047218533273	9.526497695852536	3344
023700	2000	023700	ZILOG INC	2000	157.84948365172062	518.805176565008	1.273	96.61685439968326	61.23262925203734	28345.375960935697	24.85292950817814	3344
023700	2001	023700	ZILOG INC	2001	127.37850584739122	386.538037215916	0.946	93.39438916569333	33.98411668169789	31764.418883155668	4.608685817688306	3344
023700	2002	023700	ZILOG INC	2002	107.82420637985634	113.52299485799415	0.781	67.39804047269637	40.42616590715996	34059.6277129837	2.5609905466044607	3344
023700	2003	023700	ZILOG INC	2003	84.23106630350826	29.81082030762953	0.661	52.80663766819789	31.424428635310374	37331.59884548152	2.0910141418588015	3344
023700	2004	023700	ZILOG INC	2004	80.71120416726467	30.28649689897449	0.509	61.49480442729658	19.21639973996809	40407.10191055915	4.7722860334710795	3344
023700	2007	023700	ZILOG INC	2007	74.61697252050072	13.426511858251251	0.501	57.47969907012859	17.137273450372135	50649.58430392213	4.2603262192647895	3344
023700	2008	023700	ZILOG INC	2008	80.63247325361863	14.118575269654407	0.568	51.330239144115794	29.30223410950283	53492.76274386406	2.086500342782199	3344
023700	2009	023700	ZILOG INC	2009	67.221	15.012578105980687	0.528	40.804055999999996	26.416944000000008	54873.0	3.375	3344
023700	2010	023700	ZILOG INC	2010	36.5761628259858	12.703887040493385	0.174	36.004082788759185	0.5720800372266134	58192.89052542133	0.6178749444800868	3344
023717	2000	023717	SIMTEK CORP	2000	8.018080438153683	3.4509839457508353	0.043	8.915432379821176	-0.8973519416674918	28345.375960935697	0.4182582773199733	3344
023717	2001	023717	SIMTEK CORP	2001	12.530124044531838	4.756029164329782	0.055	11.270240400963967	1.259883643567871	31764.418883155668	0.5767925808640579	3344
023717	2002	023717	SIMTEK CORP	2002	11.06588398856878	4.971929603229673	0.054	9.547974048042018	1.5179099405267624	34059.6277129837	0.18260976071440504	3344
023717	2003	023717	SIMTEK CORP	2003	11.792349282491157	5.012289325842696	0.054	11.022835074596527	0.7695142078946303	37331.59884548152	0.5513674131953998	3344
023717	2004	023717	SIMTEK CORP	2004	12.581154440382617	5.211286620764143	0.058	12.743304600369783	-0.1621501599871657	40407.10191055915	0.6626969923751884	3344
023717	2005	023717	SIMTEK CORP	2005	9.079305129348406	5.615358739007161	0.052	11.811468687981396	-2.7321635586329895	43090.198546961474	0.361954554594812	3344
023717	2006	023717	SIMTEK CORP	2006	27.808040091513234	4.71821756225426	0.057	24.702818934524455	3.1052211569887804	46689.000254203434	1.1969645063170244	3344
023717	2007	023717	SIMTEK CORP	2007	31.254852943961517	5.839747004749329	0.079	27.519619150427054	3.7352337935344595	50649.58430392213	1.3947496551164489	3344
023767	1998	023767	ATMEL CORP	1998	577.9322039187946	1643.287405918262	6.138	319.1573697159473	258.77483420284733	20045.981077018307	221.65704367539232	3344
023767	1999	023767	ATMEL CORP	1999	785.1031429836211	1729.1886053732956	7.009	421.3271246864395	363.7760182971816	23840.047218533273	197.94930875576037	3344
023767	2000	023767	ATMEL CORP	2000	1328.101883928866	1893.2422646881942	9.091	627.7455567653172	700.3563271635488	28345.375960935697	1089.7396370560964	3344
023767	2001	023767	ATMEL CORP	2001	1088.359921344826	3226.7936950358016	8.19	631.2594364031521	457.1004849416739	31764.418883155668	925.3347658900702	3344
023767	2002	023767	ATMEL CORP	2002	922.0777013980073	2820.594382062272	7.55	584.0686259365103	338.009075461497	34059.6277129837	116.03291429589463	3344
023767	2003	023767	ATMEL CORP	2003	1081.8610512622463	2417.2845622119817	7.9	625.3015163218016	456.5595349404447	37331.59884548152	70.89858581411985	3344
023767	2004	023767	ATMEL CORP	2004	1392.7934012680776	2924.3801843317974	8.8	746.4842503398143	646.3091509282632	40407.10191055915	261.8553346565581	3344
023767	2005	023767	ATMEL CORP	2005	1465.029156940401	3330.97465437788	8.08	893.4333849153268	571.5957720250741	43090.198546961474	178.99393567369057	3344
023767	2006	023767	ATMEL CORP	2006	1516.9471983149942	3093.7868663594472	7.992	888.4114246286813	628.5357736863131	46689.000254203434	86.50741744266924	3344
023767	2007	023767	ATMEL CORP	2007	1552.2195708577165	2556.592165898617	7.4	993.5670321762021	558.6525386815144	50649.58430392213	70.7315588736509	3344
023767	2008	023767	ATMEL CORP	2008	1515.0674559471363	3227.793262530636	6.4	1000.6253933291375	514.4420626179989	53492.76274386406	44.07980367025346	3344
023767	2009	023767	ATMEL CORP	2009	1217.345	2653.5389443232243	5.6	863.0072	354.3378	54873.0	31.75	3344
023767	2010	023767	ATMEL CORP	2010	1663.1193477249276	1867.9649807898215	5.2	1063.541991219374	599.5773565055536	58192.89052542133	98.51255983812861	3344
023767	2011	023767	ATMEL CORP	2011	1856.1576709663473	1910.758959501165	5.2	1076.8126087359353	779.3450622304122	60953.890816253	81.7675497969445	3344
023767	2012	023767	ATMEL CORP	2012	1473.0156444462727	1930.0270832021163	5.0	1011.8531623175585	461.1624821287144	62223.95935118233	36.328358492177195	3344
023767	2013	023767	ATMEL CORP	2013	1422.3178563368144	1858.4569369192675	5.0	964.3098955661791	458.0079607706353	62682.861773938734	32.95885422532567	3344
023767	2014	023767	ATMEL CORP	2014	1443.311581548768	1823.4655178762105	5.2	942.0573307598829	501.25425078888503	64311.75515456021	41.25482304724279	3344
023943	1998	023943	PMC-SIERRA INC	1998	84.1661768606992	42.9343695604207	0.435	36.57239939038663	47.59377747031257	20045.981077018307	25.438938282974984	3344
023943	1999	023943	PMC-SIERRA INC	1999	154.92223697801384	71.49379579513237	0.66	69.93238306035116	84.98985391766269	23840.047218533273	35.32718894009217	3344
023943	2000	023943	PMC-SIERRA INC	2000	458.40113497640965	107.35499062905474	1.726	244.08191890197625	214.31921607443337	28345.375960935697	118.21860512564751	3344
023943	2001	023943	PMC-SIERRA INC	2001	238.5809542114523	254.1060063995844	1.141	255.85284016145008	-17.271885949997785	31764.418883155668	31.486089120108574	3344
023943	2002	023943	PMC-SIERRA INC	2002	168.45060631806595	248.9827188940092	1.099	154.61373059395999	13.83687572410597	34059.6277129837	3.4974223073411355	3344
023943	2003	023943	PMC-SIERRA INC	2003	202.8399528436115	242.30869501150494	0.93	151.58186918167405	51.25808366193748	37331.59884548152	12.822318824629946	3344
023943	2004	023943	PMC-SIERRA INC	2004	251.06841034386684	237.3122119815668	0.951	163.81857624085032	87.24983410301652	40407.10191055915	10.761505005477284	3344
023943	2005	023943	PMC-SIERRA INC	2005	254.77220867102054	264.92629821912936	0.875	175.66542957309343	79.1067790979271	43090.198546961474	5.456835331844592	3344
023943	2006	023943	PMC-SIERRA INC	2006	385.8372371718052	257.30931536184414	1.183	293.27982260231687	92.55741456948836	46689.000254203434	8.316463712147165	3344
023943	2007	023943	PMC-SIERRA INC	2007	425.52601177963373	272.7720709014685	1.027	329.2206853777247	96.30532640190899	50649.58430392213	9.96510589953745	3344
023943	2008	023943	PMC-SIERRA INC	2008	516.3182426054123	241.08986175115206	1.064	352.4311674008811	163.8870752045311	53492.76274386406	6.758273967430723	3344
023943	2009	023943	PMC-SIERRA INC	2009	496.139	231.45804184427163	1.079	321.253033	174.885967	54873.0	6.215	3344
023943	2010	023943	PMC-SIERRA INC	2010	642.4444129726668	231.594822568184	1.149	408.5475812814858	233.89683169118098	58192.89052542133	11.192814489463554	3344
023943	2011	023943	PMC-SIERRA INC	2011	673.5749801830367	238.89459860682885	1.564	433.1201268285652	240.45485335447145	60953.890816253	12.281957068265326	3344
023943	2012	023943	PMC-SIERRA INC	2012	546.1639735453545	213.00109551245637	1.546	378.9557861822819	167.2081873630725	62223.95935118233	29.629875613157868	3344
023943	2013	023943	PMC-SIERRA INC	2013	521.1719567492153	183.376	1.448	366.2675721701307	154.90438457908454	62682.861773938734	15.815407140443742	3344
023943	2014	023943	PMC-SIERRA INC	2014	536.7513250206795	188.03616321794624	1.442	360.57780909490106	176.1735159257784	64311.75515456021	12.872228478593978	3344
024190	1998	024190	INTEGRATED CIRCUIT SYSTEMS	1998	83.55344259907518	31.96854935794542	0.259	59.20240464388072	24.35103795519446	20045.981077018307	9.610003187984839	3344
024190	2000	024190	INTEGRATED CIRCUIT SYSTEMS	2000	109.22234319838991	40.96447571649219	0.259	62.496549539740656	46.72579365864925	28345.375960935697	4.939754939188194	3344
024190	2001	024190	INTEGRATED CIRCUIT SYSTEMS	2001	139.19748066886467	33.66211735306838	0.28	79.05338793855434	60.14409273031034	31764.418883155668	3.6914725175299705	3344
024190	2002	024190	INTEGRATED CIRCUIT SYSTEMS	2002	141.07824206379857	36.549655815710864	0.512	83.38173785432917	57.69650420946939	34059.6277129837	3.816989388591344	3344
024190	2003	024190	INTEGRATED CIRCUIT SYSTEMS	2003	196.56246188869466	51.10339697495661	0.503	113.85036139680476	82.7121004918899	37331.59884548152	6.297254168271612	3344
024190	2004	024190	INTEGRATED CIRCUIT SYSTEMS	2004	229.756768850203	53.157834101382484	0.546	129.11504217075992	100.6417266794431	40407.10191055915	9.31355003850367	3344
024190	2005	024190	INTEGRATED CIRCUIT SYSTEMS	2005	212.5440414054782	59.33826779864662	0.54	125.80587685017619	86.738164555302	43090.198546961474	7.64232116587467	3344
024497	1998	024497	SOLAR THIN FILMS INC	1998	85.032743312198	16.15670680069222	0.45	72.31848137610338	12.71426193609462	20045.981077018307	7.4764148158643575	3344
024497	1999	024497	SOLAR THIN FILMS INC	1999	96.59141212926073	47.79508327503467	0.42	79.96917810240518	16.62223402685555	23840.047218533273	18.463133640552996	3344
024497	2000	024497	SOLAR THIN FILMS INC	2000	102.7001880629516	68.31779518477582	0.377	86.22296215645517	16.47722590649643	28345.375960935697	12.224703308661008	3344
024497	2006	024497	SOLAR THIN FILMS INC	2006	2.2033990630787668	63.81282986787574	0.05	4.302075389475977	-2.098676326397211	46689.000254203434	0.5803149688041775	3344
024497	2007	024497	SOLAR THIN FILMS INC	2007	5.473173872696627	0.8022267613534138	0.055	6.099184705414466	-0.6260108327178381	50649.58430392213	0.20084395033676863	3344
024497	2008	024497	SOLAR THIN FILMS INC	2008	3.3796806167400875	0.991670811857716	0.059	6.89545311516677	-3.5157724984266827	53492.76274386406	0.043717150039246075	3344
024497	2009	024497	SOLAR THIN FILMS INC	2009	8.721	0.8855253459570006	0.028	9.938556	-1.217556	54873.0	0.095	3344
024800	1998	024800	QUALCOMM INC	1998	1741.3876506478443	767.3931697271322	11.6	1302.5984509994644	438.78919964838	20045.981077018307	379.6842714273907	3344
024800	1999	024800	QUALCOMM INC	1999	2323.9185480301016	1152.8603164083115	9.7	1623.1000737789582	700.8184742511435	23840.047218533273	207.6463133640553	3344
024800	2000	024800	QUALCOMM INC	2000	2109.459236530404	1070.152337930703	6.3	1202.0503480814282	907.4088884489755	28345.375960935697	184.96537184180994	3344
024800	2001	024800	QUALCOMM INC	2001	1981.0059582772742	960.3025043392016	6.5	1086.3517749160962	894.6541833611781	31764.418883155668	129.14612078715223	3344
024800	2002	024800	QUALCOMM INC	2002	2347.6944465899437	967.6497695852535	8.1	1240.0056383718236	1107.6888082181201	34059.6277129837	157.64344330746363	3344
024800	2003	024800	QUALCOMM INC	2003	3228.2905809179233	1368.2085501017868	7.4	1595.8222691979347	1632.4683117199884	37331.59884548152	253.80729653882136	3344
024800	2004	024800	QUALCOMM INC	2004	4119.986154144892	1446.1705496494005	7.6	1920.9067346576949	2199.0794194871964	40407.10191055915	360.09067343463596	3344
024800	2005	024800	QUALCOMM INC	2005	4959.739816927637	1561.8638317122823	9.3	2301.6330509437757	2658.106765983861	43090.198546961474	609.6076708965254	3344
024800	2006	024800	QUALCOMM INC	2006	6832.625195191924	2131.870617507351	11.2	3601.533936158623	3231.0912590333005	46689.000254203434	711.1194161553874	3344
024800	2007	024800	QUALCOMM INC	2007	8400.090903925913	2902.0583578375936	12.8	4689.450220631404	3710.64068329451	50649.58430392213	829.7492493710946	3344
024800	2008	024800	QUALCOMM INC	2008	10956.183134046569	3444.6706652726575	15.4	6002.438640654499	4953.744493392071	53492.76274386406	1388.019513746063	3344
024800	2009	024800	QUALCOMM INC	2009	10416.0	4176.834889749347	16.1	5652.5447	4763.4553	54873.0	761.0	3344
024800	2010	024800	QUALCOMM INC	2010	11118.417059501891	4638.367228295286	17.5	6104.249701580108	5014.167357921784	58192.89052542133	420.4708088634457	3344
024800	2011	024800	QUALCOMM INC	2011	14984.712628295536	5024.551787141715	21.2	7574.453103284983	7410.259525010552	60953.890816253	573.3900599497196	3344
024800	2012	024800	QUALCOMM INC	2012	19667.156948458698	5392.113028704283	26.6	11218.339693282453	8448.817255176244	62223.95935118233	1218.2509938613052	3344
024800	2013	024800	QUALCOMM INC	2013	25509.34569851659	5923.0	31.0	14769.320256878475	10740.025441638114	62682.861773938734	983.5942486015692	3344
024800	2014	024800	QUALCOMM INC	2014	27048.8036518489	6087.943542417213	31.3	15655.005667718513	11393.797984130386	64311.75515456021	1093.8394225266306	3344
024803	1998	024803	VITESSE SEMICONDUCTOR CORP	1998	91.0685398927455	87.71052465831076	0.59	41.96969098011474	49.09884891263076	20045.981077018307	35.03359191432586	3344
024803	1999	024803	VITESSE SEMICONDUCTOR CORP	1999	166.17028183562047	116.54857927382382	0.79	78.57288475726722	87.59739707835325	23840.047218533273	49.35023041474654	3344
024803	2000	024803	VITESSE SEMICONDUCTOR CORP	2000	291.4606222574153	158.9479239539993	1.105	111.68868652875385	179.77193572866148	28345.375960935697	101.97680876868844	3344
024803	2001	024803	VITESSE SEMICONDUCTOR CORP	2001	283.97400830906156	255.6397813278547	1.295	213.36187663556925	70.61213167349233	31764.418883155668	172.4779461660258	3344
024803	2002	024803	VITESSE SEMICONDUCTOR CORP	2002	125.40125125511702	424.5355519535722	0.936	176.0193156715842	-50.61806441646717	34059.6277129837	83.81342627130913	3344
024803	2003	024803	VITESSE SEMICONDUCTOR CORP	2003	127.13606244156266	228.94141596923774	0.797	132.002071628928	-4.866009187365342	37331.59884548152	21.02349639575194	3344
024803	2004	024803	VITESSE SEMICONDUCTOR CORP	2004	184.70286288382144	220.25786021262158	0.778	145.1097469754405	39.593115908380966	40407.10191055915	21.247518953567827	3344
024803	2005	024803	VITESSE SEMICONDUCTOR CORP	2005	166.79168743060472	223.1279715841397	0.72	155.39238160183947	11.399305828765256	43090.198546961474	83.9004307470869	3344
024803	2007	024803	VITESSE SEMICONDUCTOR CORP	2007	210.16608904797076	177.56683628589565	0.514	162.90329526731435	47.262793780656416	50649.58430392213	0.891625415888988	3344
024803	2008	024803	VITESSE SEMICONDUCTOR CORP	2008	224.7246696035242	165.7441755258991	0.502	176.90784298300818	47.816826620516025	53492.76274386406	4.9291086669249955	3344
024803	2009	024803	VITESSE SEMICONDUCTOR CORP	2009	168.177	128.348310827046	0.476	136.232452	31.944547999999998	54873.0	2.34	3344
024803	2010	024803	VITESSE SEMICONDUCTOR CORP	2010	167.91429785339997	139.2993787530965	0.467	133.04606591539036	34.86823193800961	58192.89052542133	3.035088585105858	3344
025166	1998	025166	KOPIN CORP	1998	13.994580058568658	32.70517100207848	0.176	8.515932651246017	5.478647407322643	20045.981077018307	3.4772649451548534	3344
025166	1999	025166	KOPIN CORP	1999	22.819536668142245	32.87394662921348	0.271	14.235820569573553	8.583716098568692	23840.047218533273	17.284562211981566	3344
025166	2000	025166	KOPIN CORP	2000	61.10264277937247	50.6582657088921	0.398	39.50081625919694	21.60182652017553	28345.375960935697	37.893746528682996	3344
025166	2001	025166	KOPIN CORP	2001	38.381359315167735	90.85508793892754	0.367	47.96662847258158	-9.585269157413848	31764.418883155668	7.913368016285908	3344
025166	2002	025166	KOPIN CORP	2002	59.31953348266008	86.3172185112211	0.385	42.535456090213955	16.784077392446125	34059.6277129837	5.781157790421896	3344
025166	2003	025166	KOPIN CORP	2003	62.23992845237611	84.24078341013825	0.418	44.98972478556039	17.25020366681572	37331.59884548152	5.9825015132339185	3344
025166	2004	025166	KOPIN CORP	2004	73.68780973768858	90.22580645161291	0.379	58.46723091340431	15.220578824284274	40407.10191055915	1.36552457185002	3344
025166	2005	025166	KOPIN CORP	2005	78.94318112273892	69.50341747616835	0.317	53.36027924218183	25.58290188055709	43090.198546961474	3.2882830442283066	3344
025166	2006	025166	KOPIN CORP	2006	64.54134437302538	53.58179723502304	0.299	55.25232142208664	9.289022950938737	46689.000254203434	8.168011045708887	3344
025166	2007	025166	KOPIN CORP	2007	92.93884817150541	60.59877937430919	0.363	78.98935003692972	13.94949813457568	50649.58430392213	7.746693175363141	3344
025166	2008	025166	KOPIN CORP	2008	112.89136249213341	71.77485670802803	0.302	86.99280207677783	25.89856041535557	53492.76274386406	3.3125676870646914	3344
025166	2009	025166	KOPIN CORP	2009	114.655	70.82167357396716	0.339	80.174053	34.480947	54873.0	3.685	3344
025166	2010	025166	KOPIN CORP	2010	121.78161733465515	76.65574736746653	0.357	91.54330426689864	30.238313067756497	58192.89052542133	15.644277747618812	3344
025166	2011	025166	KOPIN CORP	2011	135.00756647690423	95.1998129363427	0.37	98.93791371127972	36.06965276562452	60953.890816253	6.896151614774705	3344
025166	2012	025166	KOPIN CORP	2012	35.631486376680414	102.29791448852694	0.304	32.21173590611276	3.4197504705676613	62223.95935118233	9.328538762962893	3344
025166	2013	025166	KOPIN CORP	2013	23.490428609532408	43.557956160045116	0.18	44.74511171751575	-21.254683107983336	62682.861773938734	0.6963997447159965	3344
025166	2014	025166	KOPIN CORP	2014	32.48266495103295	30.99050663054177	0.198	45.15052847645599	-12.667863525423037	64311.75515456021	1.3753761515313752	3344
025170	2005	025170	LIGHTING SCIENCE GROUP CORP	2005	0.06382178858376827	11.032485943582104	0.015	4.385077066995393	-4.321255278411625	43090.198546961474	0.16510207753447564	3344
025170	2006	025170	LIGHTING SCIENCE GROUP CORP	2006	0.3958310636598032	0.3828674931398388	0.013	4.851153902022733	-4.45532283836293	46689.000254203434	0.16402462445627913	3344
025170	2009	025170	LIGHTING SCIENCE GROUP CORP	2009	31.377	0.5304847031465737	0.126	61.671001999999994	-30.294001999999995	54873.0	1.112	3344
025170	2010	025170	LIGHTING SCIENCE GROUP CORP	2010	53.78538046007243	13.098254294713206	0.243	90.01576263985271	-36.23038217978028	58192.89052542133	6.5656615506094855	3344
025170	2011	025170	LIGHTING SCIENCE GROUP CORP	2011	112.19180761589064	12.737	1.455	81.14706760415487	31.044740011735758	60953.890816253	16.987043125120866	3344
025170	2012	025170	LIGHTING SCIENCE GROUP CORP	2012	130.74169692356747	26.742	0.377	178.6562932639396	-47.91459634037213	62223.95935118233	5.593138324620244	3344
025170	2013	025170	LIGHTING SCIENCE GROUP CORP	2013	85.37516157491946	30.73286285347678	0.432	136.83286074806622	-51.457699173146764	62682.861773938734	1.9878364680707286	3344
025170	2014	025170	LIGHTING SCIENCE GROUP CORP	2014	93.22120441571438	26.97447302262618	0.085	124.61019372364	-31.38898930792562	64311.75515456021	0.5279967507892259	3344
025274	1998	025274	UNIVERSAL DISPLAY CORP	1998	0.19193458619631423	0.11782466217460143	0.016	1.4092763181848917	-1.2173417319885778	20045.981077018307	0.03187984839360986	3344
025274	1999	025274	UNIVERSAL DISPLAY CORP	1999	0.3069204662830161	0.15096284841120808	0.018	2.579289951305887	-2.272369485022871	23840.047218533273	3.7200460829493087	3344
025274	2000	025274	UNIVERSAL DISPLAY CORP	2000	0.3253159127651853	4.570137921091835	0.031	5.575481870071597	-5.250165957306411	28345.375960935697	1.3069154302166102	3344
025274	2001	025274	UNIVERSAL DISPLAY CORP	2001	0.9262681668317636	6.3098485116833745	0.037	8.790415748776557	-7.864147581944793	31764.418883155668	1.9757973309206063	3344
025274	2002	025274	UNIVERSAL DISPLAY CORP	2002	1.8884683710512087	8.026251657730977	0.041	11.938690816405346	-10.050222445354137	34059.6277129837	1.3027647563161822	3344
025274	2003	025274	UNIVERSAL DISPLAY CORP	2003	5.3603805032724905	9.328206288170097	0.046	14.857403959510547	-9.497023456238058	37331.59884548152	1.053210807241512	3344
025274	2004	025274	UNIVERSAL DISPLAY CORP	2004	5.915726020920748	10.197196272088544	0.049	15.847434717637421	-9.931708696716672	40407.10191055915	8.045640408247378	3344
025274	2005	025274	UNIVERSAL DISPLAY CORP	2005	8.872102884220281	18.38123127971584	0.052	18.968251720128343	-10.096148835908064	43090.198546961474	5.987067003926466	3344
025274	2006	025274	UNIVERSAL DISPLAY CORP	2006	10.822711261212186	24.36801848896715	0.064	20.877067218651266	-10.054355957439082	46689.000254203434	2.4385686256189856	3344
025274	2007	025274	UNIVERSAL DISPLAY CORP	2007	10.705831108080979	26.749573543168438	0.064	23.46997708463534	-12.764145976554358	50649.58430392213	1.2436095106711027	3344
025274	2008	025274	UNIVERSAL DISPLAY CORP	2008	10.890300503461296	27.677089773207953	0.08	25.318596601636244	-14.42829609817495	53492.76274386406	1.2687909227299372	3344
025274	2009	025274	UNIVERSAL DISPLAY CORP	2009	15.787	28.32453141702033	0.084	27.679668	-11.892667999999999	54873.0	0.259	3344
025274	2010	025274	UNIVERSAL DISPLAY CORP	2010	30.898092135877153	28.40284906918412	0.086	33.262957492868274	-2.364865356991122	58192.89052542133	0.36421063021270295	3344
025274	2011	025274	UNIVERSAL DISPLAY CORP	2011	63.093093402238026	28.625101865865147	0.093	50.395278930192816	12.697814472045215	60953.890816253	2.537226842003481	3344
025274	2012	025274	UNIVERSAL DISPLAY CORP	2012	85.62171502627979	32.979990869511965	0.117	57.23230922724047	28.389405799039316	62223.95935118233	2.5968481076311467	3344
025274	2013	025274	UNIVERSAL DISPLAY CORP	2013	150.4329181969265	35.272616839662035	0.124	90.07299288044483	60.35992531648167	62682.861773938734	4.420542853924991	3344
025274	2014	025274	UNIVERSAL DISPLAY CORP	2014	195.08287123556264	39.08457649464844	0.145	112.54299806991207	82.53987316565056	64311.75515456021	5.679657355954732	3344
025848	1998	025848	KEMET CORP	1998	288.84802837927106	480.99167335473516	10.718	16.10846020608261	272.73956817318845	20045.981077018307	100.07084410754136	3344
025848	1999	025848	KEMET CORP	1999	394.11007820569574	582.6557483948635	11.3	47.06666666666668	347.0434115390291	23840.047218533273	131.93087557603687	3344
025848	2000	025848	KEMET CORP	2000	373.2020192022172	702.5386746426732	10.8	21.226170444422397	351.9758487577948	28345.375960935697	66.92925881006087	3344
025848	2001	025848	KEMET CORP	2001	607.7258009669264	779.364534555885	14.2	23.597439271404788	584.1283616955216	31764.418883155668	92.74937796878534	3344
025848	2002	025848	KEMET CORP	2002	1086.0794006333513	859.4327233452385	12.2	183.4993434772534	902.5800571560981	34059.6277129837	234.45200369673418	3344
025848	2003	025848	KEMET CORP	2003	413.47615756738077	1055.055504829641	6.9	75.31980974836377	338.156347819017	37331.59884548152	86.44252462444287	3344
025848	2004	025848	KEMET CORP	2004	377.6642717840046	1119.0499805178704	6.2	83.74868084459713	293.9155909394075	40407.10191055915	24.07509842839944	3344
025848	2008	025848	KEMET CORP	2008	647.7285242290749	1020.6229979012481	9.1	86.71334172435496	561.0151825047199	53492.76274386406	28.485697536936026	3344
025848	2009	025848	KEMET CORP	2009	850.12	1293.8967195024077	11.6	128.93320000000017	721.1867999999998	54873.0	43.605	3344
025848	2010	025848	KEMET CORP	2010	813.7101179517268	1441.4689506420543	9.1	276.1460335444191	537.5640844073077	58192.89052542133	30.14459852933919	3344
025848	2011	025848	KEMET CORP	2011	758.0220096974439	1178.5153058772646	10.4	52.87165813936734	705.1503515580766	60953.890816253	12.493714948752658	3344
025848	2012	025848	KEMET CORP	2012	1047.579276508645	1159.9493087557603	11.0	168.0651697643562	879.5141067442889	62223.95935118233	33.197339582720566	3344
025848	2013	025848	KEMET CORP	2013	1010.3130962883932	1211.0426267281105	9.7	285.5871068343627	724.7259894540306	62682.861773938734	46.283365243833764	3344
025848	2014	025848	KEMET CORP	2014	860.8335120451783	1272.0886023638316	9.8	191.22596325684464	669.6075487883336	64311.75515456021	42.621891557590416	3344
025927	1998	025927	AUREAL INC	1998	13.174306772846197	5.380659572640132	0.111	16.78370220490708	-3.609395432060881	20045.981077018307	2.7393054915990693	3344
026015	1998	026015	TRIDENT MICROSYSTEMS INC	1998	58.77775639391843	20.199638844301766	0.439	52.41602419728171	6.361732196636724	20045.981077018307	4.526938471892601	3344
026015	1999	026015	TRIDENT MICROSYSTEMS INC	1999	52.68112734248192	24.565446566476254	0.348	50.2930098863804	2.3881174561015146	23840.047218533273	2.9815668202764978	3344
026015	2000	026015	TRIDENT MICROSYSTEMS INC	2000	80.95417202811046	26.07238852682352	0.35	71.55326800620279	9.400904021907685	28345.375960935697	1.3669904673384492	3344
026015	2001	026015	TRIDENT MICROSYSTEMS INC	2001	94.7898339666159	22.256587748689814	0.362	79.74941378239721	15.040420184218693	31764.418883155668	2.324134811128704	3344
026015	2002	026015	TRIDENT MICROSYSTEMS INC	2002	81.69151154707654	22.975809124047277	0.407	76.67685255271492	5.01465899436163	34059.6277129837	3.0086071551848925	3344
026015	2003	026015	TRIDENT MICROSYSTEMS INC	2003	42.889548355624214	18.076266921953433	0.257	47.22597503963575	-4.336426684011538	37331.59884548152	0.5040444615638585	3344
026015	2004	026015	TRIDENT MICROSYSTEMS INC	2004	44.366678767718895	15.387164475864356	0.3	27.595211360355265	16.771467407363627	40407.10191055915	0.7115044631720518	3344
026015	2005	026015	TRIDENT MICROSYSTEMS INC	2005	60.33432125964976	15.026326447954638	0.344	47.56145863386401	12.772862625785756	43090.198546961474	1.1059722501508142	3344
026015	2006	026015	TRIDENT MICROSYSTEMS INC	2006	155.64694774303663	11.044596365697283	0.417	104.31777335947996	51.32917438355668	46689.000254203434	2.7333976974264744	3344
026015	2007	026015	TRIDENT MICROSYSTEMS INC	2007	256.42008976762685	12.593304682198598	0.52	184.63981213188646	71.7802776357404	50649.58430392213	17.94408829018908	3344
026015	2008	026015	TRIDENT MICROSYSTEMS INC	2008	253.63632787916924	28.626160212516005	0.624	193.66287759597225	59.973450283197	53492.76274386406	6.205848162389342	3344
026015	2009	026015	TRIDENT MICROSYSTEMS INC	2009	75.779	32.863344964700154	0.69	86.04963000000001	-10.270630000000011	54873.0	3.189	3344
026015	2010	026015	TRIDENT MICROSYSTEMS INC	2010	563.6575151233131	40.858644569634464	1.522	534.3419871730026	29.31552795031052	58192.89052542133	9.117110003454572	3344
027794	1998	027794	CREE INC	1998	22.122411613862983	38.38044570840177	0.248	10.623151784367474	11.499259829495509	20045.981077018307	18.04989786641163	3344
027794	1999	027794	CREE INC	1999	35.443411539029064	57.41497600549849	0.39	12.82603511878412	22.61737642024495	23840.047218533273	46.74884792626729	3344
027794	2000	027794	CREE INC	2000	71.63680754891287	99.95074246720168	0.68	20.887472367943513	50.74933518096935	28345.375960935697	88.46559287260692	3344
027794	2001	027794	CREE INC	2001	131.01335068084038	188.62361706398406	0.97	42.159668524624095	88.85368215621627	31764.418883155668	120.10178692603483	3344
027794	2002	027794	CREE INC	2002	120.0540665791303	312.389400921659	0.893	56.860569243840274	63.193497335290026	34059.6277129837	46.35949626429422	3344
027794	2003	027794	CREE INC	2003	186.85475019309726	319.0947938746132	1.121	74.15680637424283	112.69794381885443	37331.59884548152	85.4487426401805	3344
027794	2004	027794	CREE INC	2004	259.0778998201727	410.3472065143633	1.235	94.15322042770181	164.9246793924709	40407.10191055915	83.81869651514658	3344
027794	2005	027794	CREE INC	2005	340.14740210349623	485.7297152846597	1.322	112.0750701602539	228.07233194324235	43090.198546961474	150.09472202525214	3344
027794	2006	027794	CREE INC	2006	383.98518357119514	628.5695197585987	1.364	163.05931292442892	220.92587064676619	46689.000254203434	80.20596509805144	3344
027794	2007	027794	CREE INC	2007	373.19943942579016	692.8553348373962	2.578	143.85580175368824	229.34363767210195	50649.58430392213	83.79047309908302	3344
027794	2008	027794	CREE INC	2008	485.06922592825674	807.0511197930997	3.168	203.9035950283197	281.165630899937	53492.76274386406	55.38267409858217	3344
027794	2009	027794	CREE INC	2009	567.255	846.799856831419	3.172	259.26784399999997	307.987156	54873.0	55.283	3344
027794	2010	027794	CREE INC	2010	877.3413316608332	888.3740604561872	4.298	331.4961984340542	545.845133226779	58192.89052542133	166.4353748211025	3344
027794	2011	027794	CREE INC	2011	1016.7028690845078	1038.3153238011578	4.753	439.5009934217977	577.2018756627101	60953.890816253	229.24482691935796	3344
027794	2012	027794	CREE INC	2012	1197.924359462267	1276.2274175283371	5.555	656.1242915770958	541.8000678851712	62223.95935118233	90.14962475212766	3344
027794	2013	027794	CREE INC	2013	1421.8408256221917	1381.6323564525003	6.12	778.4010340794845	643.4397915427071	62682.861773938734	72.70713668956715	3344
027794	2014	027794	CREE INC	2014	1682.5883602422311	1410.749208796559	7.13	914.4798668341451	768.1084934080859	64311.75515456021	164.82083187180385	3344
027913	1998	027913	SUPERCONDUCTOR TECHNOLOGIES	1998	4.152340925759286	12.115576399557963	0.142	5.590790260750158	-1.4384493349908716	20045.981077018307	3.981438843824165	3344
027913	1999	027913	SUPERCONDUCTOR TECHNOLOGIES	1999	4.203629924745463	15.691996420372748	0.118	6.87670768776745	-2.673077763021987	23840.047218533273	0.7085253456221198	3344
027913	2000	027913	SUPERCONDUCTOR TECHNOLOGIES	2000	6.569665775842159	15.329590613763957	0.178	14.096692071661884	-7.5270262958197245	28345.375960935697	2.485746347324394	3344
027913	2001	027913	SUPERCONDUCTOR TECHNOLOGIES	2001	9.161405739462129	17.98756019261637	0.189	14.95916362346053	-5.7977578839984005	31764.418883155668	2.1465731734901605	3344
027913	2002	027913	SUPERCONDUCTOR TECHNOLOGIES	2002	17.298215802888702	19.909779597440487	0.24	22.242002008187228	-4.943786205298528	34059.6277129837	6.010533465465599	3344
027913	2003	027913	SUPERCONDUCTOR TECHNOLOGIES	2003	40.15935607138501	29.13582974336316	0.302	35.22693442822878	4.93242164315623	37331.59884548152	4.242557640455622	3344
027913	2004	027913	SUPERCONDUCTOR TECHNOLOGIES	2004	19.42134456761252	32.58238579339497	0.154	31.308860503009782	-11.887515935397264	40407.10191055915	1.9653141574203625	3344
027913	2005	027913	SUPERCONDUCTOR TECHNOLOGIES	2005	21.16522849074584	29.368663594470046	0.12	24.466965667374826	-3.3017371766289854	43090.198546961474	0.2762284758749881	3344
027913	2006	027913	SUPERCONDUCTOR TECHNOLOGIES	2006	19.136071467480118	28.44836380535688	0.115	20.323469332171257	-1.1873978646911414	46689.000254203434	0.23773189240815143	3344
027913	2007	027913	SUPERCONDUCTOR TECHNOLOGIES	2007	16.951688351040662	27.622048672114982	0.129	17.65706399257618	-0.7053756415355182	50649.58430392213	0.193743406637994	3344
027913	2008	027913	SUPERCONDUCTOR TECHNOLOGIES	2008	11.104664883574573	26.172313342325698	0.105	16.70862177470107	-5.603956891126495	53492.76274386406	0.17784931493238745	3344
027913	2009	027913	SUPERCONDUCTOR TECHNOLOGIES	2009	10.816	26.781434120883663	0.105	16.082335	-5.266335	54873.0	0.226	3344
027913	2010	027913	SUPERCONDUCTOR TECHNOLOGIES	2010	8.646084124061748	28.081100296648607	0.079	15.424207416998808	-6.77812329293706	58192.89052542133	0.3701327542812022	3344
027913	2011	027913	SUPERCONDUCTOR TECHNOLOGIES	2011	3.602054787469503	30.195971622375264	0.038	13.65159204850781	-10.049537261038308	60953.890816253	2.179462386385612	3344
027913	2012	027913	SUPERCONDUCTOR TECHNOLOGIES	2012	3.557800109027699	32.956449521367276	0.036	12.336735134690349	-8.778935025662651	62223.95935118233	3.404271468827386	3344
027965	1998	027965	MICROCHIP TECHNOLOGY INC	1998	173.8604859221963	318.00975753266806	1.879	74.58048456981166	99.28000135238463	20045.981077018307	93.29224375095936	3344
027965	1999	027965	MICROCHIP TECHNOLOGY INC	1999	234.25940681717574	409.348650539416	2.153	97.39954375092225	136.8598630662535	23840.047218533273	167.39746543778801	3344
027965	2000	027965	MICROCHIP TECHNOLOGY INC	2000	268.21076247979147	572.6200201835744	1.977	103.99022600547691	164.22053647431457	28345.375960935697	44.931593802069756	3344
027965	2001	027965	MICROCHIP TECHNOLOGY INC	2001	366.4628827416946	596.1783362967947	2.692	131.31233792155177	235.1505448201428	31764.418883155668	240.17416874010405	3344
027965	2002	027965	MICROCHIP TECHNOLOGY INC	2002	552.8153240132849	804.5718064066689	3.011	215.59352205144052	337.22180196184445	34059.6277129837	491.20578115779045	3344
027965	2003	027965	MICROCHIP TECHNOLOGY INC	2003	464.4530265457945	1272.1774193548388	3.041	162.70047075084355	301.7525557949509	37331.59884548152	49.18285368403676	3344
027965	2004	027965	MICROCHIP TECHNOLOGY INC	2004	550.0029549081023	1322.6013824884792	3.373	172.2575050444502	377.7454498636521	40407.10191055915	87.18858122105446	3344
027965	2005	027965	MICROCHIP TECHNOLOGY INC	2005	611.342792946381	1468.2803803996692	3.678	176.98867294393298	434.3541200024479	43090.198546961474	67.21242075629452	3344
027965	2006	027965	MICROCHIP TECHNOLOGY INC	2006	768.9072883756401	1500.6075513188173	3.943	221.47141936303885	547.4358690126013	46689.000254203434	65.62126921839152	3344
027965	2007	027965	MICROCHIP TECHNOLOGY INC	2007	878.6366304944795	1615.2035183568912	4.336	245.17422873700363	633.4624017574758	50649.58430392213	77.38984013633043	3344
027965	2008	027965	MICROCHIP TECHNOLOGY INC	2008	1022.3322451227186	1687.4688984392672	4.582	320.9843061674009	701.3479389553178	53492.76274386406	59.65304480014308	3344
027965	2009	027965	MICROCHIP TECHNOLOGY INC	2009	1035.737	1750.6966749604162	4.811	345.1149970000002	690.622003	54873.0	69.827	3344
027965	2010	027965	MICROCHIP TECHNOLOGY INC	2010	913.7687903372652	1755.9083232263697	4.895	289.2136180630021	624.555172274263	58192.89052542133	101.0413068153778	3344
027965	2011	027965	MICROCHIP TECHNOLOGY INC	2011	975.6421210842196	1856.0398082132776	5.418	299.2363726206776	676.405748463542	60953.890816253	46.02978147360278	3344
027965	2012	027965	MICROCHIP TECHNOLOGY INC	2012	1529.6843339538996	1917.5541474654376	6.97	496.68070312580346	1033.0036308280962	62223.95935118233	118.08115980530754	3344
027965	2013	027965	MICROCHIP TECHNOLOGY INC	2013	1418.9622273743819	2073.922899924056	6.923	475.37891011305106	943.5833172613308	62682.861773938734	58.5369974096182	3344
027965	2014	027965	MICROCHIP TECHNOLOGY INC	2014	1615.1700826159329	2061.3105426022694	8.003	676.8594426232855	938.3106399926473	64311.75515456021	46.90863440840364	3344
028139	1998	028139	SANMINA CORP	1998	515.8936401512591	120.08050762439808	6.1	302.77868225723404	213.11495789402505	20045.981077018307	65.28048362910748	3344
028139	1999	028139	SANMINA CORP	1999	716.9803747971079	446.24673956661314	7.22	415.2574767596281	301.7228980374797	23840.047218533273	75.20161290322581	3344
028139	2000	028139	SANMINA CORP	2000	2581.120459269524	509.47191644806196	24.0	1541.5091227028279	1039.6113365666963	28345.375960935697	225.18730943178085	3344
028139	2001	028139	SANMINA CORP	2001	2996.915889232225	1724.8510627865353	48.774	1110.3752339695727	1886.540655262652	31764.418883155668	212.09115584709343	3344
028139	2002	028139	SANMINA CORP	2002	6767.3051672202055	1875.5427912171533	46.03	4943.967011662933	1823.3381555572719	34059.6277129837	103.54307474751974	3344
028139	2003	028139	SANMINA CORP	2003	8424.272531403714	3662.5698049756375	45.008	6453.968593845277	1970.3039375584372	37331.59884548152	77.85946183899192	3344
028139	2004	028139	SANMINA CORP	2004	10303.85488868439	2563.025613917055	48.721	7967.174532913455	2336.680355770935	40407.10191055915	94.57586307877526	3344
028139	2005	028139	SANMINA CORP	2005	10259.286070238939	2713.067663030419	48.621	7787.843936492949	2471.4421337459903	43090.198546961474	78.89868447511299	3344
028139	2006	028139	SANMINA CORP	2006	9946.091622181066	2530.0733236513056	54.397	7082.238879507572	2863.8527426734936	46689.000254203434	144.5025797543783	3344
028139	2007	028139	SANMINA CORP	2007	9833.015169592638	2486.450574270748	52.607	6910.867921330229	2922.1472482624085	50649.58430392213	89.62712001947578	3344
028139	2008	028139	SANMINA CORP	2008	7082.287405601007	2586.444027148766	45.61	4366.681088735053	2715.6063168659534	53492.76274386406	120.6970898288076	3344
028139	2009	028139	SANMINA CORP	2009	5177.481	2502.3952536223	38.602	2897.241454	2280.239546	54873.0	65.931	3344
028139	2010	028139	SANMINA CORP	2010	6391.942662917029	2381.4447522616388	44.199	3511.544627430352	2880.3980354866767	58192.89052542133	80.35927552682229	3344
028139	2011	028139	SANMINA CORP	2011	6796.869434521665	2521.271819823435	45.505	3673.0900565169495	3123.7793780047155	60953.890816253	104.01663121253142	3344
028139	2012	028139	SANMINA CORP	2012	6267.379118109912	2537.9334045190667	44.879	3197.7042633944643	3069.674854715448	62223.95935118233	74.60459026347998	3344
028139	2013	028139	SANMINA CORP	2013	6070.214817702456	2523.1318179633813	48.674	2755.233234165658	3314.981583536798	62682.861773938734	71.28242669970342	3344
028139	2014	028139	SANMINA CORP	2014	6346.931772923623	2439.577060677978	43.101	3261.212814149893	3085.7189587737303	64311.75515456021	64.1599128620747	3344
028195	1998	028195	JABIL CIRCUIT INC	1998	664.4234420269125	271.50757423756016	5.311	484.2901650429382	180.13327698397427	20045.981077018307	117.81611231152516	3344
028195	1999	028195	JABIL CIRCUIT INC	1999	1180.6675520141655	397.57777832258694	6.554	908.0220664010625	272.64548561310306	23840.047218533273	172.94930875576037	3344
028195	2000	028195	JABIL CIRCUIT INC	2000	2348.029298228249	559.8033800949961	19.115	1596.7607377346662	751.2685604935828	28345.375960935697	377.6101470138173	3344
028195	2001	028195	JABIL CIRCUIT INC	2001	3201.3949465529217	1014.1645441876111	17.097	2397.31212723805	804.082819314872	31764.418883155668	349.69690115358515	3344
028195	2002	028195	JABIL CIRCUIT INC	2002	2738.445972039855	1259.9608294930874	20.0	1828.5695527921528	909.8764192477021	34059.6277129837	95.15750091861618	3344
028195	2003	028195	JABIL CIRCUIT INC	2003	3845.2636286027882	1367.0550763406368	26.0	2574.250985812431	1271.0126427903574	37331.59884548152	128.99906454630496	3344
028195	2004	028195	JABIL CIRCUIT INC	2004	5279.067431002895	1324.108798914273	34.0	3534.5774903543356	1744.4899406485595	40407.10191055915	236.16416663955144	3344
028195	2005	028195	JABIL CIRCUIT INC	2005	6578.353048146108	1500.3373826676616	40.0	4411.057780575446	2167.2952675706633	43090.198546961474	271.8352789272598	3344
028195	2007	028195	JABIL CIRCUIT INC	2007	11638.156922902108	1775.8632208353283	61.0	8080.720792379221	3557.4361305228867	50649.58430392213	306.5304714761016	3344
028195	2008	028195	JABIL CIRCUIT INC	2008	12566.573906544996	2359.9485894640943	61.0	8730.714089049716	3835.859817495279	53492.76274386406	335.3323993760371	3344
028195	2009	028195	JABIL CIRCUIT INC	2009	11684.538	2681.3718153125305	61.0	7880.773999999999	3803.764000000001	54873.0	292.238	3344
028195	2010	028195	JABIL CIRCUIT INC	2010	13564.864345398264	2655.914570258343	69.0	8898.421915147592	4666.442430250673	58192.89052542133	393.2537136653013	3344
028195	2011	028195	JABIL CIRCUIT INC	2011	17005.350065370243	2718.0323273848458	121.0	8666.266895891455	8339.083169478788	60953.890816253	443.81067491781084	3344
028195	2012	028195	JABIL CIRCUIT INC	2012	17641.85532230028	3047.975330682463	141.0	7849.035721999937	9792.81960030034	62223.95935118233	472.211732781768	3344
028195	2013	028195	JABIL CIRCUIT INC	2013	18811.315373725352	3335.8381273162636	177.0	6630.968013295308	12180.347360430045	62682.861773938734	691.5737507977625	3344
028195	2014	028195	JABIL CIRCUIT INC	2014	16096.469675152926	4206.334	142.0	6149.606323335683	9946.863351817243	64311.75515456021	576.0518396809865	3344
028206	1998	028206	RAMTRON INTERNATIONAL CORP	1998	9.650824694543129	30.03774172211198	0.119	12.141219642866432	-2.4903949483233037	20045.981077018307	0.9729257435679454	3344
028206	1999	028206	RAMTRON INTERNATIONAL CORP	1999	14.679651763317102	30.226455560461744	0.127	13.738434705621955	0.9412170576951462	23840.047218533273	0.36405529953917054	3344
028206	2000	028206	RAMTRON INTERNATIONAL CORP	2000	17.208749876274375	29.413991042704854	0.128	20.03341053812399	-2.8246606618496184	28345.375960935697	0.719766954195618	3344
028206	2001	028206	RAMTRON INTERNATIONAL CORP	2001	16.89607759066783	30.21981482647855	0.117	26.143698715200262	-9.247621124532431	31764.418883155668	0.6310789414159693	3344
028206	2002	028206	RAMTRON INTERNATIONAL CORP	2002	39.039932030586236	29.93821863737772	0.116	34.466477176179815	4.573454854406423	34059.6277129837	0.7861127503924996	3344
028206	2003	028206	RAMTRON INTERNATIONAL CORP	2003	34.47213301353713	31.50331059390048	0.084	32.12980690271962	2.3423261108175124	37331.59884548152	0.6372090463874979	3344
028206	2004	028206	RAMTRON INTERNATIONAL CORP	2004	48.82183592661696	31.85362474019021	0.094	39.54854576308391	9.273290163533055	40407.10191055915	0.8915497998893697	3344
028206	2005	028206	RAMTRON INTERNATIONAL CORP	2005	30.067930862643273	34.624403654888006	0.11	23.65290563992272	6.415025222720553	43090.198546961474	1.4700434980473505	3344
028206	2006	028206	RAMTRON INTERNATIONAL CORP	2006	36.751461669753425	28.359467206204688	0.111	28.86988687947126	7.881574790282163	46689.000254203434	1.6132548506649227	3344
028206	2007	028206	RAMTRON INTERNATIONAL CORP	2007	48.381720735564265	28.90974365434276	0.115	37.901980001136295	10.479740734427972	50649.58430392213	1.6645703156698854	3344
028206	2008	028206	RAMTRON INTERNATIONAL CORP	2008	62.49410006293266	27.164928636647605	0.122	46.226203587161734	16.26789647577092	53492.76274386406	2.5912347114171315	3344
028206	2009	028206	RAMTRON INTERNATIONAL CORP	2009	47.517	28.330480713646104	0.111	39.469097000000005	8.047902999999998	54873.0	7.051	3344
028206	2010	028206	RAMTRON INTERNATIONAL CORP	2010	71.01786472980355	40.6050576380309	0.125	57.88966556740242	13.128199162401124	58192.89052542133	6.5350639095889065	3344
028206	2011	028206	RAMTRON INTERNATIONAL CORP	2011	68.36389091919827	40.198643788484446	0.137	59.188616312706536	9.17527460649173	60953.890816253	4.95358731386579	3344
028249	1998	028249	CATALYST SEMICONDUCTOR INC	1998	24.495846618778383	16.79052695744653	0.058	24.42705081325129	0.06879580552709046	20045.981077018307	3.228129833634421	3344
028249	1999	028249	CATALYST SEMICONDUCTOR INC	1999	20.40962077615464	17.585315082318804	0.042	28.492004131621663	-8.082383355467021	23840.047218533273	1.7926267281105992	3344
028249	2000	028249	CATALYST SEMICONDUCTOR INC	2000	21.107261869411726	15.594903691813803	0.043	18.418880200600483	2.6883816688112434	28345.375960935697	0.34798181880008616	3344
028249	2001	028249	CATALYST SEMICONDUCTOR INC	2001	36.612357141801084	14.996739566613162	0.055	27.07298150420628	9.539375637594805	31764.418883155668	0.9681067631757521	3344
028249	2002	028249	CATALYST SEMICONDUCTOR INC	2002	75.70479647794856	16.142848145115575	0.072	49.94980767745424	25.75498880049432	34059.6277129837	1.9864378848445035	3344
028249	2003	028249	CATALYST SEMICONDUCTOR INC	2003	34.790845156307164	18.41796505393301	0.067	30.981444774177806	3.8094003821293554	37331.59884548152	0.9167446211412535	3344
028249	2004	028249	CATALYST SEMICONDUCTOR INC	2004	40.71103531537311	10.11274170183284	0.108	31.568559777790902	9.14247553758221	40407.10191055915	1.9154220761613467	3344
028249	2005	028249	CATALYST SEMICONDUCTOR INC	2005	55.54943565802012	11.800876320924925	0.13	40.836056687736594	14.713378970283525	43090.198546961474	1.8245896260861283	3344
028249	2006	028249	CATALYST SEMICONDUCTOR INC	2006	56.57842175981407	12.79147465437788	0.139	44.20293332607038	12.375488433743687	46689.000254203434	4.2833265854848595	3344
028249	2007	028249	CATALYST SEMICONDUCTOR INC	2007	57.02043444501259	16.309805832946058	0.155	45.106532772759124	11.91390167225347	50649.58430392213	5.810273472368741	3344
028249	2008	028249	CATALYST SEMICONDUCTOR INC	2008	65.24347073631213	22.118050529456962	0.169	55.72234896161106	9.521121774701077	53492.76274386406	4.233608552664262	3344
028249	2009	028249	CATALYST SEMICONDUCTOR INC	2009	75.933	25.769132269594365	0.249	56.46662300000001	19.466376999999994	54873.0	1.933	3344
028337	1998	028337	SIGNAL TECHNOLOGY CORP	1998	47.89678184475665	50.80736158126143	0.754	34.4221385361997	13.474643308556955	20045.981077018307	1.8986220821083208	3344
028337	1999	028337	SIGNAL TECHNOLOGY CORP	1999	48.66401062416998	51.324851173106104	0.657	27.828899513058868	20.835111111111118	23840.047218533273	2.2211981566820276	3344
028337	2000	028337	SIGNAL TECHNOLOGY CORP	2000	64.98861724240325	52.700435248848805	0.702	38.713839453627635	26.274777788775605	28345.375960935697	4.808269952280018	3344
028337	2001	028337	SIGNAL TECHNOLOGY CORP	2001	66.93895353135119	58.849429130133096	0.608	53.823978000206985	13.114975531144195	31764.418883155668	4.425469350825605	3344
028337	2002	028337	SIGNAL TECHNOLOGY CORP	2002	66.95373445585851	62.56646268057785	0.545	38.12090445663088	28.83282999922762	34059.6277129837	2.696834392989567	3344
028374	1998	028374	INTERLINK ELECTRONICS	1998	11.492668514925645	4.120686195826645	0.12	8.347500429122043	3.145168085803602	20045.981077018307	0.998901916333109	3344
028374	1999	028374	INTERLINK ELECTRONICS	1999	16.58905120259702	5.182835072231139	0.13	11.676653386454184	4.912397816142835	23840.047218533273	0.6094470046082949	3344
028374	2000	028374	INTERLINK ELECTRONICS	2000	22.349797089973276	5.714776042560493	0.118	16.18673793262727	6.163059157346004	28345.375960935697	0.725434410527867	3344
028374	2001	028374	INTERLINK ELECTRONICS	2001	18.67690760974023	6.499301282208438	0.136	14.254931472418939	4.421976137321292	31764.418883155668	0.46708889391540376	3344
028374	2002	028374	INTERLINK ELECTRONICS	2002	19.34270487371592	7.0142494200817405	0.15	15.834131459025254	3.5085734146906637	34059.6277129837	0.5611909719515862	3344
028374	2003	028374	INTERLINK ELECTRONICS	2003	25.23842432619212	7.632828896498399	0.111	19.726268547501927	5.512155778690192	37331.59884548152	0.7076432069553734	3344
028374	2004	028374	INTERLINK ELECTRONICS	2004	29.892694622911506	8.420781324791045	0.115	26.6870287976901	3.205665825221405	40407.10191055915	1.0553259796744	3344
028374	2005	028374	INTERLINK ELECTRONICS	2005	33.43125169390021	9.603079261565616	0.202	31.084730855649102	2.3465208382511076	43090.198546961474	0.38312148761205245	3344
028374	2006	028374	INTERLINK ELECTRONICS	2006	32.899371754366854	10.059280533156596	0.226	32.64471256854414	0.25465918582270985	46689.000254203434	1.0163297933082105	3344
028374	2007	028374	INTERLINK ELECTRONICS	2007	18.289680510577053	11.260846619291335	0.22	14.038425847016267	4.251254663560784	50649.58430392213	0.22924612513186723	3344
028678	1998	028678	ACTEL CORP	1998	80.32488439712255	50.55051163723916	0.457	56.00572006678699	24.31916433033555	20045.981077018307	9.027900771020038	3344
028678	1999	028678	ACTEL CORP	1999	101.31975800501696	57.25318100468264	0.449	69.89785509812602	31.421902906890953	23840.047218533273	7.381336405529954	3344
028678	2000	028678	ACTEL CORP	2000	149.40710679996042	62.98587331394136	0.484	93.06892078260582	56.338186017354595	28345.375960935697	6.997041587794566	3344
028678	2001	028678	ACTEL CORP	2001	107.60308706772919	69.86640395982508	0.521	83.13582136996021	24.46726569776899	31764.418883155668	10.773580637864736	3344
028678	2002	028678	ACTEL CORP	2002	103.7831157797173	77.90136138759993	0.538	80.56292114003244	23.22019463968487	34059.6277129837	9.828636328207642	3344
028678	2003	028678	ACTEL CORP	2003	121.88300337412089	74.42396313364054	0.543	90.69930647587299	31.183696898247895	37331.59884548152	12.357893578385516	3344
028678	2004	028678	ACTEL CORP	2004	139.75533360912473	78.6221198156682	0.557	109.39612062779132	30.359212981333418	40407.10191055915	11.620516491502078	3344
028678	2005	028678	ACTEL CORP	2005	156.8416083090723	90.36520737327189	0.565	117.71959066628199	39.12201764279032	43090.198546961474	10.773968905775398	3344
028678	2006	028678	ACTEL CORP	2006	173.85608454079966	94.8324133162554	0.574	135.07453789446927	38.78154664633038	46689.000254203434	9.008896778680953	3344
028678	2007	028678	ACTEL CORP	2007	186.58314868473383	99.4921959126305	0.584	153.4301308637767	33.15301782095713	50649.58430392213	13.207011279720847	3344
028678	2008	028678	ACTEL CORP	2008	214.76360918816866	112.97217824021715	0.55	172.22702957835114	42.5365796098175	53492.76274386406	21.284290639562034	3344
028766	1998	028766	LEVEL ONE COMMUNICATIONS INC	1998	136.79266383359428	72.32017455858748	0.821	91.36683484783073	45.42582898576355	20045.981077018307	34.992266184926734	3344
029304	1998	029304	ELECSYS CORP	1998	10.453933098573234	3.7142366814582357	0.129	7.0617722480273395	3.392160850545895	20045.981077018307	0.22788187925802605	3344
029304	1999	029304	ELECSYS CORP	1999	14.074664305740002	3.727432281502755	0.122	10.020538881510994	4.054125424229009	23840.047218533273	0.31451612903225806	3344
029304	2000	029304	ELECSYS CORP	2000	10.520967369428224	4.05390478294488	0.103	9.278783199709657	1.2421841697185663	28345.375960935697	0.31964453713884133	3344
029304	2001	029304	ELECSYS CORP	2001	11.183228114789243	3.884136671632467	0.171	6.149963037982169	5.033265076807074	31764.418883155668	0.5530422981225966	3344
029304	2002	029304	ELECSYS CORP	2002	16.772997605622926	7.692584939208996	0.157	10.147347648103809	6.625649957519117	34059.6277129837	0.3585386765246245	3344
029304	2003	029304	ELECSYS CORP	2003	6.412455790885807	7.88376843422715	0.097	3.27830237001504	3.1341534208707675	37331.59884548152	0.48203378638639743	3344
029304	2004	029304	ELECSYS CORP	2004	9.53253353820696	3.8017297076726027	0.114	3.98139758710647	5.551135951100491	40407.10191055915	0.31128320263777265	3344
029304	2005	029304	ELECSYS CORP	2005	9.27776466371163	4.239990952273241	0.08	5.414395747545484	3.863368916166147	43090.198546961474	0.12911829140516684	3344
029304	2006	029304	ELECSYS CORP	2006	11.173148854268803	4.185549332472247	0.097	5.607528961034245	5.565619893234557	46689.000254203434	0.3228585962398912	3344
029304	2007	029304	ELECSYS CORP	2007	13.91208832831468	4.588626975024775	0.106	7.245957616044542	6.666130712270137	50649.58430392213	0.13491033027671834	3344
029304	2008	029304	ELECSYS CORP	2008	19.478642227816238	4.718903450656394	0.129	10.556364065449968	8.922278162366268	53492.76274386406	5.700120222162608	3344
029304	2009	029304	ELECSYS CORP	2009	23.418	8.951741594673418	0.158	12.372065999999998	11.045934	54873.0	0.585	3344
029304	2010	029304	ELECSYS CORP	2010	22.135674833592976	9.125064823732366	0.132	12.269172719363912	9.866502114229066	58192.89052542133	0.2901840793564625	3344
029304	2011	029304	ELECSYS CORP	2011	17.529519554452897	8.965295296230547	0.12	10.007103223216212	7.522416331236683	60953.890816253	0.025140204989363757	3344
029304	2012	029304	ELECSYS CORP	2012	24.22677761435051	8.579485514890854	0.129	13.883562531499747	10.343215082850763	62223.95935118233	0.040798125183828755	3344
029304	2013	029304	ELECSYS CORP	2013	23.701758345472825	8.410583524595864	0.127	12.9783602453887	10.723398100084124	62682.861773938734	0.2505912828021174	3344
029304	2014	029304	ELECSYS CORP	2014	25.90300542262798	8.589426411120053	0.125	14.484850341594923	11.418155081033056	64311.75515456021	0.4172282016726051	3344
029350	1998	029350	CMC INDUSTRIES INC	1998	157.0612682246831	23.246205202494174	1.402	124.46272463888731	32.598543585795795	20045.981077018307	11.22170663455067	3344
029386	1998	029386	TRIQUINT SEMICONDUCTOR INC	1998	58.05110973560881	92.35061850713214	0.679	39.361164195097096	18.68994554051172	20045.981077018307	6.6333699361222305	3344
029386	1999	029386	TRIQUINT SEMICONDUCTOR INC	1999	96.59908514091781	96.30198646936739	0.802	59.46667729083665	37.132407850081165	23840.047218533273	17.61405529953917	3344
029386	2000	029386	TRIQUINT SEMICONDUCTOR INC	2000	198.4552443168696	105.40339367942977	1.073	97.04194265729653	101.41330165957307	28345.375960935697	93.08910374845563	3344
029386	2001	029386	TRIQUINT SEMICONDUCTOR INC	2001	247.6248207342135	207.5316011235955	1.562	148.67411475967296	98.95070597454054	31764.418883155668	166.32662293598733	3344
029386	2002	029386	TRIQUINT SEMICONDUCTOR INC	2002	206.4671352436858	384.05071369834434	1.485	132.242955897119	74.22417934656679	34059.6277129837	26.929372334621252	3344
029386	2003	029386	TRIQUINT SEMICONDUCTOR INC	2003	253.8899955282735	337.3537364363052	2.046	170.31982113094023	83.57017439733325	37331.59884548152	30.742310020359877	3344
029386	2004	029386	TRIQUINT SEMICONDUCTOR INC	2004	292.96225315964097	438.4493087557604	2.072	186.95197683352043	106.01027632612055	40407.10191055915	27.427629366912875	3344
029386	2005	029386	TRIQUINT SEMICONDUCTOR INC	2005	257.72374782525065	431.95311880121966	1.575	168.07247270088564	89.65127512436504	43090.198546961474	23.63711410035243	3344
029386	2006	029386	TRIQUINT SEMICONDUCTOR INC	2006	364.77557468133784	449.6265146277048	1.78	237.28614228129427	127.48943240004355	46689.000254203434	41.256345572892336	3344
029386	2007	029386	TRIQUINT SEMICONDUCTOR INC	2007	450.5198568263167	487.6789499336908	1.883	304.53687574569625	145.98298108062042	50649.58430392213	32.961738213097455	3344
029386	2008	029386	TRIQUINT SEMICONDUCTOR INC	2008	563.8678020767778	519.2149439488569	2.297	385.8344477658905	178.03335431088732	53492.76274386406	87.0020964360587	3344
029386	2009	029386	TRIQUINT SEMICONDUCTOR INC	2009	654.301	619.202475544926	2.393	456.477911	197.82308900000004	54873.0	48.557	3344
029386	2010	029386	TRIQUINT SEMICONDUCTOR INC	2010	888.889675683331	672.0029405111965	2.777	553.7189167863717	335.1707588969593	58192.89052542133	104.38730691407986	3344
029386	2011	029386	TRIQUINT SEMICONDUCTOR INC	2011	922.4750100371632	781.3833709349035	2.905	617.1825425421304	305.2924674950329	60953.890816253	186.02204602591374	3344
029386	2012	029386	TRIQUINT SEMICONDUCTOR INC	2012	852.8578628513828	928.2927810174945	2.723	622.244110961398	230.61375188998488	62223.95935118233	71.42328529275026	3344
029386	2013	029386	TRIQUINT SEMICONDUCTOR INC	2013	915.9800160036111	958.829819261474	3.109	625.7544081741521	290.22560782945897	62682.861773938734	81.68524984044751	3344
029435	1998	029435	PLANAR SYSTEMS INC	1998	67.10688519815035	40.23717908282344	0.9	40.462775613384444	26.644109584765907	20045.981077018307	4.71821756225426	3344
029435	1999	029435	PLANAR SYSTEMS INC	1999	72.547734985982	43.90298956661316	0.876	49.41507097535783	23.13266401062417	23840.047218533273	5.526497695852535	3344
029435	2000	029435	PLANAR SYSTEMS INC	2000	111.6539641690587	47.24190345436269	0.881	80.56403312547428	31.089931043584404	28345.375960935697	10.40658331727554	3344
029435	2001	029435	PLANAR SYSTEMS INC	2001	153.72651063766872	65.79402776243603	0.747	108.54795230421217	45.17855833345654	31764.418883155668	14.708210812033478	3344
029435	2002	029435	PLANAR SYSTEMS INC	2002	159.05537962462347	80.55288577058005	0.643	115.3739314126825	43.681448211940975	34059.6277129837	6.353483503880458	3344
029435	2003	029435	PLANAR SYSTEMS INC	2003	204.82702548884097	68.58890345128879	0.46	158.94275377047845	45.884271718362534	37331.59884548152	2.9736422164749903	3344
029435	2004	029435	PLANAR SYSTEMS INC	2004	216.29589605477554	65.81221198156682	0.433	179.68052124578924	36.61537480898631	40407.10191055915	5.591166932396231	3344
029435	2005	029435	PLANAR SYSTEMS INC	2005	202.68401220482423	55.67369053421444	0.391	176.2738418093914	26.410170395432825	43090.198546961474	3.6036703461851896	3344
029435	2006	029435	PLANAR SYSTEMS INC	2006	193.12742855067728	53.7966523410993	0.59	150.3895395286342	42.73788902204306	46689.000254203434	1.5198231025569156	3344
029435	2007	029435	PLANAR SYSTEMS INC	2007	257.76471033842773	54.10370898239598	0.69	228.47147889324467	29.293231445183057	50649.58430392213	7.400795260894263	3344
029435	2008	029435	PLANAR SYSTEMS INC	2008	254.98544682190055	61.332746381995264	0.569	238.75904657016991	16.22640025173064	53492.76274386406	2.716424731984063	3344
029435	2009	029435	PLANAR SYSTEMS INC	2009	174.931	53.55914923155349	0.444	153.54238800000002	21.388611999999995	54873.0	0.378	3344
029435	2010	029435	PLANAR SYSTEMS INC	2010	177.70449349545797	51.17529395578228	0.429	153.94758532785724	23.75690816760071	58192.89052542133	0.7264472190692395	3344
029435	2011	029435	PLANAR SYSTEMS INC	2011	191.9970351763967	50.38991746114384	0.471	162.47551446895685	29.521520707439848	60953.890816253	1.4407271320827693	3344
029435	2012	029435	PLANAR SYSTEMS INC	2012	176.2484185840799	52.47014802179057	0.422	163.16374520432407	13.08467337975583	62223.95935118233	3.6357771094053906	3344
029435	2013	029435	PLANAR SYSTEMS INC	2013	171.1247666140052	54.95959103635107	0.298	152.5622232708919	18.56254334311331	62682.861773938734	2.64387881518189	3344
029435	2014	029435	PLANAR SYSTEMS INC	2014	182.7997508246275	65.12635467677995	0.308	157.44145093593943	25.358299888688066	64311.75515456021	0.30553658131334577	3344
029698	1998	029698	SIGMATRON INTERNATIONAL INC	1998	45.36522186909957	11.92942415730337	1.461	12.059900755774944	33.305321113324624	20045.981077018307	3.4843493559089893	3344
029698	1999	029698	SIGMATRON INTERNATIONAL INC	1999	50.55393241847425	16.814582362891954	1.7	7.609443706654865	42.94448871181938	23840.047218533273	1.077188940092166	3344
029698	2001	029698	SIGMATRON INTERNATIONAL INC	2001	65.70737909723968	23.99572885599617	1.615	11.248329316794063	54.45904978044562	31764.418883155668	1.9135942094548744	3344
029698	2002	029698	SIGMATRON INTERNATIONAL INC	2002	62.47856646327335	25.521409005718677	1.215	20.08739090136712	42.39117556190623	34059.6277129837	1.6813459675533633	3344
029698	2003	029698	SIGMATRON INTERNATIONAL INC	2003	68.9223139151998	28.43961747320871	1.415	11.837765762835888	57.084548152363915	37331.59884548152	0.7978869751829637	3344
029698	2004	029698	SIGMATRON INTERNATIONAL INC	2004	78.65543238748131	28.807575596566423	1.4	12.468530228709891	66.18690215877143	40407.10191055915	1.7744227160815194	3344
029698	2005	029698	SIGMATRON INTERNATIONAL INC	2005	87.85899756078369	30.312211981566822	1.255	23.419811856864342	64.43918570391936	43090.198546961474	9.769597934107338	3344
029698	2006	029698	SIGMATRON INTERNATIONAL INC	2006	96.30406362348839	52.80184331797235	1.74	5.171242328503472	91.13282129498492	46689.000254203434	3.9625442503140347	3344
029698	2007	029698	SIGMATRON INTERNATIONAL INC	2007	118.16184686476147	57.67626728110599	2.14	2.0960362100638306	116.06581065469764	50649.58430392213	6.463523492656009	3344
029698	2008	029698	SIGMATRON INTERNATIONAL INC	2008	163.14210981749525	63.310021196286684	2.47	21.53083700440527	141.61127281308998	53492.76274386406	2.2832275179588066	3344
029698	2009	029698	SIGMATRON INTERNATIONAL INC	2009	167.811	67.15807992517455	2.14	38.68678000000001	129.12421999999998	54873.0	2.4	3344
029698	2010	029698	SIGMATRON INTERNATIONAL INC	2010	135.29548627268497	68.76685192318274	1.7	27.495903048940868	107.79958322374411	58192.89052542133	0.810343976706312	3344
029698	2011	029698	SIGMATRON INTERNATIONAL INC	2011	126.08324154047293	69.2422825070159	1.7	15.068098292138071	111.01514324833487	60953.890816253	2.4937149487526593	3344
029698	2012	029698	SIGMATRON INTERNATIONAL INC	2012	156.06183721958797	72.4162218676058	1.78	35.19961326023678	120.86222395935118	62223.95935118233	4.668064555917151	3344
029698	2013	029698	SIGMATRON INTERNATIONAL INC	2013	160.68856562506411	77.18483464480273	1.7	47.12612076571124	113.56244485935288	62682.861773938734	2.1652213087059353	3344
029698	2014	029698	SIGMATRON INTERNATIONAL INC	2014	202.649020148484	79.50696087602488	2.7	21.40130510707391	181.2477150414101	64311.75515456021	6.619343880960733	3344
029823	1998	029823	SUNTRON CORP	1998	117.95914758157221	36.194807423570076	1.858	73.56220084992174	44.39694673165047	20045.981077018307	27.019942616272893	3344
029823	1999	029823	SUNTRON CORP	1999	130.9511583296444	55.939713047854	1.591	103.0603033790763	27.890854950568087	23840.047218533273	16.611751152073733	3344
029823	2000	029823	SUNTRON CORP	2000	216.07047411659906	39.875774905089145	1.863	163.14360223036064	52.9268718862384	28345.375960935697	7.038980764653209	3344
029823	2001	029823	SUNTRON CORP	2001	257.2741251090379	40.27304147465438	2.108	170.11498735898988	87.15913775004805	31764.418883155668	8.673377064012666	3344
029823	2002	029823	SUNTRON CORP	2002	286.3960763111146	45.55299539170507	1.801	240.8830640302773	45.51301228083727	34059.6277129837	2.64004721130399	3344
029823	2003	029823	SUNTRON CORP	2003	254.6697020204073	131.79556351518312	1.717	200.02782877352735	54.641873246879975	37331.59884548152	3.2179607109448085	3344
029823	2004	029823	SUNTRON CORP	2004	401.35081513250645	133.80637702186505	1.559	328.0072108200292	73.34360431247728	40407.10191055915	2.925194416425341	3344
029823	2005	029823	SUNTRON CORP	2005	287.39913097454996	136.29665733425526	1.5	220.68131944990864	66.71781152464133	43090.198546961474	2.166435594314562	3344
029823	2006	029823	SUNTRON CORP	2006	291.23179721828814	105.92965180121145	1.24	231.46450230598833	59.76729491229979	46689.000254203434	2.427149189739118	3344
029953	1998	029953	REPTRON ELECTRONICS INC	1998	157.49507159836259	62.92761837881219	1.869	119.87881021362476	37.61626138473782	20045.981077018307	4.366358494798862	3344
029953	1999	029953	REPTRON ELECTRONICS INC	1999	212.02124833997343	71.7699473471041	2.109	157.86712763759778	54.154120702375664	23840.047218533273	4.517281105990783	3344
029953	2000	029953	REPTRON ELECTRONICS INC	2000	380.388003563298	75.32317747128646	2.142	298.1690243821967	82.21897918110132	28345.375960935697	9.452183670924816	3344
029953	2001	029953	REPTRON ELECTRONICS INC	2001	294.6959504413265	83.06381854005478	1.532	254.3796235788104	40.31632686251608	31764.418883155668	5.030536077810451	3344
029953	2002	029953	REPTRON ELECTRONICS INC	2002	246.8579593728277	80.52849704225851	1.317	207.3447524523056	39.5132069205221	34059.6277129837	4.627598570299191	3344
029953	2003	029953	REPTRON ELECTRONICS INC	2003	122.01065083946501	84.36352473049722	1.003	78.06110167079963	43.949549168665385	37331.59884548152	2.2825070159027128	3344
029953	2004	029953	REPTRON ELECTRONICS INC	2004	119.54545070791156	77.03824401072107	1.006	74.73623983722678	44.80921087068477	40407.10191055915	3.612837449430037	3344
029953	2005	029953	REPTRON ELECTRONICS INC	2005	121.05419606403161	29.304149711526478	0.952	76.25023037042865	44.80396569360295	43090.198546961474	1.7473303205732007	3344
030086	1998	030086	VL DISSOLUTION CORP	1998	9.395432060878115	27.25829816716004	0.2	2.303319063941785	7.092112996936328	20045.981077018307	11.756579646487905	3344
030086	1999	030086	VL DISSOLUTION CORP	1999	14.331415080419063	39.62053571428571	0.229	4.226330824848751	10.105084255570311	23840.047218533273	7.6889400921658995	3344
030086	2001	030086	VL DISSOLUTION CORP	2001	30.58754823543327	46.910931868886216	0.204	21.569794639028935	9.017753596404333	31764.418883155668	2.3003845283872426	3344
030086	2002	030086	VL DISSOLUTION CORP	2002	16.488761875337914	16.745158344946898	0.202	11.528853016142735	4.959908859195181	34059.6277129837	1.0611408656148047	3344
030101	1998	030101	MELTRONIX INC	1998	10.02377076040426	2.5845204654895664	0.098	7.48242056040738	2.54135019999688	20045.981077018307	1.3011701085095582	3344
030101	1999	030101	MELTRONIX INC	1999	5.462003836505828	3.8968839638137727	0.099	3.4908018297181647	1.9712020067876637	23840.047218533273	0.12327188940092165	3344
030101	2000	030101	MELTRONIX INC	2000	7.808901646375664	4.728941909986868	0.099	9.31430004289155	-1.5053983965158857	28345.375960935697	0.10768167031273025	3344
030101	2001	030101	MELTRONIX INC	2001	1.7815692594290107	4.7431399875054066	0.039	3.544072770820704	-1.7625035113916934	31764.418883155668	0.0	3344
030209	1998	030209	PROPHOTONIX LTD	1998	6.546061699947466	12.293886707795851	0.137	3.854377825053446	2.69168387489402	20045.981077018307	0.7509475399383657	3344
030209	1999	030209	PROPHOTONIX LTD	1999	8.466283016083812	12.444392565788622	0.152	4.872697653829128	3.5935853622546845	23840.047218533273	0.6693548387096774	3344
030209	2000	030209	PROPHOTONIX LTD	2000	12.119172523012967	11.576494299930715	0.201	6.19607641294665	5.923096110066317	28345.375960935697	6.125386803894676	3344
030209	2001	030209	PROPHOTONIX LTD	2001	11.518103996333368	16.02879213483146	0.255	12.847927170040068	-1.3298231737067	31764.418883155668	21.388826057453063	3344
030209	2002	030209	PROPHOTONIX LTD	2002	10.034757086583765	35.89111037470697	0.175	12.54578280682784	-2.5110257202440738	34059.6277129837	1.6802324934026656	3344
030209	2003	030209	PROPHOTONIX LTD	2003	11.477702345623806	34.76674577592009	0.15	10.3350542704988	1.1426480751250052	37331.59884548152	0.08804270070984428	3344
030209	2004	030209	PROPHOTONIX LTD	2004	14.903712208836017	32.76181859307849	0.175	12.437060457419772	2.466651751416244	40407.10191055915	0.3785290512912287	3344
030209	2005	030209	PROPHOTONIX LTD	2005	14.165814252367088	32.84777199728568	0.147	10.424643078833023	3.741171173534065	43090.198546961474	0.07514261221120365	3344
030209	2006	030209	PROPHOTONIX LTD	2006	17.567273123433925	26.34019452612531	0.203	9.311398300468461	8.255874822965465	46689.000254203434	0.4495105214529675	3344
030209	2007	030209	PROPHOTONIX LTD	2007	28.300475351779255	28.304682198597604	0.219	19.34445864818287	8.956016703596386	50649.58430392213	1.0001622981416862	3344
030209	2008	030209	PROPHOTONIX LTD	2008	31.60202957835116	30.335489761605185	0.183	22.31533196979232	9.286697608558836	53492.76274386406	0.7253072620147645	3344
030216	1999	030216	PANDA PROJECT INC	1999	0.7897299690128375	7.158792811787491	0.017	2.0276541242437656	-1.2379241552309281	23840.047218533273	0.024193548387096777	3344
030247	1998	030247	MERIX CORP	1998	81.23878431025784	142.6402131239484	1.348	48.60804668847822	32.63073762177963	20045.981077018307	20.980482448372356	3344
030247	1999	030247	MERIX CORP	1999	105.42718016821603	150.48311998236127	1.35	62.81903497122621	42.60814519698982	23840.047218533273	21.2741935483871	3344
030247	2000	030247	MERIX CORP	2000	75.21330297931307	163.4605437456633	1.112	44.008662773433635	31.204640205879446	28345.375960935697	18.03838001428199	3344
030247	2001	030247	MERIX CORP	2001	115.22687286544348	142.25020064205458	1.139	61.521289383030016	53.70558348241346	31764.418883155668	12.1624066953178	3344
030247	2002	030247	MERIX CORP	2002	142.04062717231793	141.4682880188286	1.059	68.49175639144204	73.54887078087589	34059.6277129837	35.19914485185227	3344
030247	2003	030247	MERIX CORP	2003	70.32806211634619	170.98237269852166	0.963	40.04381641530142	30.284245701044764	37331.59884548152	18.498871952897158	3344
030247	2004	030247	MERIX CORP	2004	79.84414970408704	189.82044012420684	0.844	53.767774616495124	26.076375087591916	40407.10191055915	5.633466740420178	3344
030247	2005	030247	MERIX CORP	2005	136.7359963630323	176.9522802633476	1.148	76.86199980766038	59.873996555371946	43090.198546961474	14.482415570395927	3344
030247	2006	030247	MERIX CORP	2006	169.76613283945238	190.7406751443449	1.288	97.3063732432727	72.45975959617967	46689.000254203434	16.415958142576848	3344
030247	2007	030247	MERIX CORP	2007	292.5799670473269	202.4447004608295	4.45	36.22800787834024	256.35195916898664	50649.58430392213	7.350077091617301	3344
030247	2008	030247	MERIX CORP	2008	393.8168659534298	255.416195430898	4.12	135.3829059156702	258.43396003775956	53492.76274386406	19.66774965970173	3344
030247	2009	030247	MERIX CORP	2009	378.637	243.45237440158476	3.8	157.3336	221.3034	54873.0	28.394	3344
030247	2010	030247	MERIX CORP	2010	290.4556214214903	243.24016529463444	2.95	113.88036902907318	176.57525239241713	58192.89052542133	18.758327986971327	3344
030379	1999	030379	V3 SEMICONDUCTOR INC	1999	4.028331119964586	1.1135634028892456	0.05	2.59551423933894	1.432816880625646	23840.047218533273	0.6589861751152073	3344
030379	2000	030379	V3 SEMICONDUCTOR INC	2000	5.086278003233363	2.346258025682183	0.06	3.949084430367217	1.1371935728661462	28345.375960935697	1.6537637577502466	3344
030789	1998	030789	MICRO LINEAR CORP	1998	24.8635912053388	53.486406358417966	0.267	15.696549338631907	9.167041866706892	20045.981077018307	4.833929604571807	3344
030789	1999	030789	MICRO LINEAR CORP	1999	27.531356057252474	58.56270076210871	0.233	19.644029511583298	7.887326545669176	23840.047218533273	3.7085253456221197	3344
030789	2000	030789	MICRO LINEAR CORP	2000	24.876439341449732	62.47527870504503	0.094	23.319895740539113	1.5565436009106186	28345.375960935697	3.6135701574419374	3344
030789	2001	030789	MICRO LINEAR CORP	2001	16.32612327572187	29.37679276275466	0.107	21.555004657214248	-5.228881381492378	31764.418883155668	2.1985976023524088	3344
030789	2002	030789	MICRO LINEAR CORP	2002	22.167297443423188	31.734045943759348	0.085	23.803780798640613	-1.6364833552174252	34059.6277129837	0.3139997104967208	3344
030789	2003	030789	MICRO LINEAR CORP	2003	16.826700272368797	28.908771800630852	0.059	20.000777267368594	-3.174076994999797	37331.59884548152	0.5975898310680681	3344
030789	2004	030789	MICRO LINEAR CORP	2004	17.42298243096068	27.516803772070627	0.056	19.031958597516184	-1.6089761665555031	40407.10191055915	0.6073818588054101	3344
030789	2005	030789	MICRO LINEAR CORP	2005	15.798952623250367	7.255718298555377	0.043	19.37005184427484	-3.5710992210244727	43090.198546961474	0.27834516917671215	3344
031011	1998	031011	QUALITY SEMICONDUCTOR INC	1998	31.634356811077073	48.949137239165324	0.193	30.310046137121397	1.3243106739556743	20045.981077018307	7.487041431995561	3344
031147	1998	031147	MICREL INC	1998	73.08494535845996	64.40860754414125	0.675	33.5844824268022	39.50046293165776	20045.981077018307	36.461100681284165	3344
031147	1999	031147	MICREL INC	1999	115.16718311937436	103.73630145382333	0.794	52.39872864099159	62.768454478382765	23840.047218533273	33.8294930875576	3344
031147	2000	031147	MICREL INC	2000	212.79158005872844	136.7122009892362	0.959	95.41997162558978	117.37160843313868	28345.375960935697	74.62113054418916	3344
031147	2001	031147	MICREL INC	2001	161.01246359241242	207.57087362591952	0.895	110.25898916273636	50.753474429676075	31764.418883155668	40.39809997738068	3344
031147	2002	031147	MICREL INC	2002	158.10921448984323	246.46665013637494	0.821	137.05365181123042	21.055562678612787	34059.6277129837	32.88311861840128	3344
031147	2003	031147	MICREL INC	2003	172.14195699012154	244.12442396313364	0.779	115.74896215293305	56.39299483718848	37331.59884548152	23.26418312881748	3344
031147	2004	031147	MICREL INC	2004	217.43986762011698	256.110599078341	0.877	129.22480349861115	88.21506412150582	40407.10191055915	18.348355188234148	3344
031147	2005	031147	MICREL INC	2005	218.87900962572454	267.315668202765	0.884	126.27297540675464	92.60603421896991	43090.198546961474	15.259242012128652	3344
031147	2006	031147	MICREL INC	2006	248.22693103823943	260.2764976958525	0.932	137.41151541562257	110.81541562261685	46689.000254203434	17.413601586263457	3344
031147	2007	031147	MICREL INC	2007	244.27968107872658	277.7266125889979	0.923	135.3215281328712	108.95815294585536	50649.58430392213	20.523614379615353	3344
031147	2008	031147	MICREL INC	2008	255.03461296412837	292.95809571038933	0.852	147.6235053492763	107.4111076148521	53492.76274386406	10.973004659850766	3344
031147	2009	031147	MICREL INC	2009	218.887	287.9827188940092	0.755	131.867885	87.019115	54873.0	12.133	3344
031147	2010	031147	MICREL INC	2010	300.81332065470286	282.53917050691246	0.837	163.02399295931372	137.78932769538918	58192.89052542133	9.633321818092089	3344
031147	2011	031147	MICREL INC	2011	266.6539700841063	295.1200217255263	0.781	159.38705360359896	107.2669164805073	60953.890816253	7.036356604138464	3344
031147	2012	031147	MICREL INC	2012	257.25599909486436	300.0840982267288	0.796	165.34892360861113	91.90707548625325	62223.95935118233	8.56001593973263	3344
031147	2013	031147	MICREL INC	2013	243.21385338230166	314.7968138247604	0.728	163.66230739243727	79.55154598986441	62682.861773938734	6.87483575477719	3344
031147	2014	031147	MICREL INC	2014	252.8456031780072	308.20438271901577	0.707	176.4917006219172	76.35390255608999	64311.75515456021	10.83131796112024	3344
031455	1998	031455	ARIEL CORP	1998	9.074500788024116	6.213685062149108	0.106	13.532098848912632	-4.4575980608885155	20045.981077018307	0.85485223099902	3344
031455	1999	031455	ARIEL CORP	1999	6.862623579755054	5.841035573316335	0.091	11.28724745462594	-4.4246238748708855	23840.047218533273	0.684331797235023	3344
031455	2000	031455	ARIEL CORP	2000	5.283579134910423	6.681640217484689	0.067	11.892802797848823	-6.609223662938401	28345.375960935697	0.8603198712353922	3344
031488	1998	031488	INTEGRATED SILICON SOLUTION	1998	68.20803836611132	72.64826301208659	0.442	66.58297243736119	1.6250659287501321	20045.981077018307	22.691367645496086	3344
031488	1999	031488	INTEGRATED SILICON SOLUTION	1999	49.17160985686882	90.26453210424378	0.153	51.17614106536815	-2.0045312084993325	23840.047218533273	4.02073732718894	3344
031488	2000	031488	INTEGRATED SILICON SOLUTION	2000	93.65073080603122	29.139511764056117	0.647	66.42084397373718	27.229886832294042	28345.375960935697	3.9547510286433245	3344
031488	2001	031488	INTEGRATED SILICON SOLUTION	2001	112.40001774176855	34.077815097207576	0.255	102.2198685630646	10.180149178703966	31764.418883155668	6.325491970142502	3344
031488	2002	031488	INTEGRATED SILICON SOLUTION	2002	54.41260523673437	39.25690749957096	0.301	64.80250482737314	-10.389899590638768	34059.6277129837	7.229787660479463	3344
031488	2003	031488	INTEGRATED SILICON SOLUTION	2003	79.40160169112565	47.90507244600259	0.274	82.35376722631001	-2.952165535184359	37331.59884548152	1.5319429923512904	3344
031488	2004	031488	INTEGRATED SILICON SOLUTION	2004	152.82109297829408	43.8332290094137	0.31	146.47487061723808	6.346222361055996	40407.10191055915	2.7711797307996835	3344
031488	2005	031488	INTEGRATED SILICON SOLUTION	2005	158.62599557618833	46.88562416387447	0.386	162.39779159126078	-3.771796015072443	43090.198546961474	1.1091472901034005	3344
031488	2006	031488	INTEGRATED SILICON SOLUTION	2006	197.45433416857318	68.24134418302097	0.421	190.9269646294077	6.527369539165477	46689.000254203434	1.7668981697758677	3344
031488	2007	031488	INTEGRATED SILICON SOLUTION	2007	232.36842603639946	67.7423230333029	0.417	206.3510472889798	26.017378747419645	50649.58430392213	4.465227623143715	3344
031488	2008	031488	INTEGRATED SILICON SOLUTION	2008	231.3060494021397	67.55875576036867	0.449	201.44292794210196	29.86312146003775	53492.76274386406	4.567448607509415	3344
031488	2009	031488	INTEGRATED SILICON SOLUTION	2009	154.251	72.3705044107668	0.445	130.281515	23.96948499999999	54873.0	2.82	3344
031488	2010	031488	INTEGRATED SILICON SOLUTION	2010	255.38470876241732	73.12598959511423	0.452	184.06058227284683	71.32412648957049	58192.89052542133	7.979075161624635	3344
031488	2011	031488	INTEGRATED SILICON SOLUTION	2011	278.4751747495856	76.04471712189202	0.469	215.89218542500953	62.58298932457611	60953.890816253	6.139044672210404	3344
031488	2012	031488	INTEGRATED SILICON SOLUTION	2012	273.54638305750694	81.64089583447974	0.552	205.33537125988704	68.21101179761989	62223.95935118233	5.726918223478846	3344
031488	2013	031488	INTEGRATED SILICON SOLUTION	2013	315.52760622909784	86.55083026930879	0.59	253.4354623607378	62.092143868360054	62682.861773938734	21.765776926831098	3344
031488	2014	031488	INTEGRATED SILICON SOLUTION	2014	335.9547807971569	104.3591101145058	0.59	266.9762568548757	68.97852394228117	64311.75515456021	19.703878745361568	3344
031620	1998	031620	SDL INC	1998	55.20746100190895	60.99766958493418	0.738	29.88677315828622	25.32068784362273	20045.981077018307	15.867899354137887	3344
031620	1999	031620	SDL INC	1999	110.3857163936845	77.57574237560192	0.998	59.64396163494172	50.74175475874279	23840.047218533273	34.444700460829495	3344
031661	1998	031661	ACT MANUFACTURING INC	1998	151.1180579756883	17.20631019261637	1.042	126.4954835555232	24.622574420165098	20045.981077018307	9.382121308726813	3344
031661	1999	031661	ACT MANUFACTURING INC	1999	410.9676848162904	25.92120424624286	2.816	324.6923086911613	86.27537612512911	23840.047218533273	7.752304147465438	3344
031661	2000	031661	ACT MANUFACTURING INC	2000	904.4158500775347	77.81950734563128	8.8	601.9302517404071	302.48559833712756	28345.375960935697	10.617412692835202	3344
031743	1998	031743	ANADIGICS INC	1998	44.77173308088821	129.32921836619008	0.475	30.14568043151473	14.626052649373479	20045.981077018307	29.054349237835478	3344
031743	1999	031743	ANADIGICS INC	1999	77.41419507156559	149.094118512344	0.543	44.51685819684225	32.89733687472334	23840.047218533273	34.153225806451616	3344
031743	2000	031743	ANADIGICS INC	2000	113.67448612623313	185.66343876185917	0.578	71.64501105282258	42.029475073410545	28345.375960935697	49.37941353161874	3344
031743	2001	031743	ANADIGICS INC	2001	62.66170882800834	227.86895093469172	0.557	64.34959193932315	-1.6878831113148092	31764.418883155668	19.051119656186383	3344
031743	2002	031743	ANADIGICS INC	2002	63.77075770448752	212.3103444204362	0.454	64.82966092531088	-1.0589032208233502	34059.6277129837	5.506129675199591	3344
031743	2003	031743	ANADIGICS INC	2003	61.150453270458144	196.20511730603474	0.48	67.35015244522135	-6.199699174763203	37331.59884548152	4.598030044571617	3344
031743	2004	031743	ANADIGICS INC	2004	77.12310147154422	201.74158431039166	0.424	82.23334993710266	-5.110248465558437	40407.10191055915	3.716960053796679	3344
031743	2005	031743	ANADIGICS INC	2005	94.66694643341116	207.81753087606327	0.439	91.2127075300968	3.454238903314359	43090.198546961474	2.393980124249897	3344
031743	2006	031743	ANADIGICS INC	2006	154.23339506845335	213.09940228530752	0.508	131.81726767621743	22.416127392235914	46689.000254203434	13.883957768849857	3344
031743	2007	031743	ANADIGICS INC	2007	218.31714107153005	235.457580147383	0.625	175.56140276120675	42.75573831032328	50649.58430392213	32.97289621033839	3344
031743	2008	031743	ANADIGICS INC	2008	253.86445877910634	286.57162682142183	0.657	212.35466488357454	41.5097938955318	53492.76274386406	54.19038818842091	3344
031743	2009	031743	ANADIGICS INC	2009	140.484	328.457517163192	0.564	137.793628	2.6903719999999964	54873.0	10.346	3344
031743	2010	031743	ANADIGICS INC	2010	219.22633378517816	311.66562545052625	0.59	167.83403807635503	51.392295708823106	58192.89052542133	5.493757094211124	3344
031743	2011	031743	ANADIGICS INC	2011	157.3281586180628	289.79744511068543	0.54	148.29841773129226	9.029740886770504	60953.890816253	5.61980274608393	3344
031743	2012	031743	ANADIGICS INC	2012	115.86044454501507	281.1852522053834	0.504	138.88690536189998	-23.02646081688491	62223.95935118233	2.6718028027363205	3344
031743	2013	031743	ANADIGICS INC	2013	137.71517675783252	282.342230264646	0.477	148.4071749522969	-10.691998194464396	62682.861773938734	6.0667492585501375	3344
031743	2014	031743	ANADIGICS INC	2014	88.11208806919721	289.5832152613264	0.293	92.75250145522502	-4.640413386027799	64311.75515456021	0.7846105562427308	3344
060899	1998	060899	CLARE INC	1998	66.66267886586945	75.26886067760977	1.474	29.5519518551076	37.11072701076186	20045.981077018307	17.766521436246208	3344
060899	1999	060899	CLARE INC	1999	92.23609266637155	64.28310099034883	1.719	41.12726634203924	51.1088263243323	23840.047218533273	17.58294930875576	3344
060899	2000	060899	CLARE INC	2000	94.96387211719292	81.12363796687032	1.476	44.77478240786566	50.18908970932726	28345.375960935697	12.283644854516396	3344
060899	2001	060899	CLARE INC	2001	79.46390289338676	90.57157234556992	0.5	66.94597631473897	12.517926578647778	31764.418883155668	5.733996833295635	3344
060899	2002	060899	CLARE INC	2002	57.94238047424114	57.752655101158155	0.43	50.397999536572186	7.5443809376689535	34059.6277129837	6.99039071807948	3344
061088	1998	061088	TELCOM SEMICONDUCTOR INC	1998	28.22478712945962	30.347642746818995	0.305	17.04972354137517	11.175063588084452	20045.981077018307	6.8671554910087025	3344
061088	1999	061088	TELCOM SEMICONDUCTOR INC	1999	33.83325955437509	22.952489659658553	0.258	20.83820097388225	12.995058580492847	23840.047218533273	1.8571428571428572	3344
061105	1998	061105	SMARTFLEX SYSTEMS INC	1998	55.96843742360328	34.98247076417661	1.653	19.85978528293446	36.108652140668816	20045.981077018307	8.082131935342945	3344
061359	1998	061359	BLUE WAVE SYSTEMS INC	1998	16.997914206800417	2.79770264847512	0.171	13.735978632323034	3.261935574477382	20045.981077018307	1.4558464099748505	3344
061359	1999	061359	BLUE WAVE SYSTEMS INC	1999	16.143426294820717	12.785914927768859	0.131	13.499057990261177	2.64436830455954	23840.047218533273	0.8076036866359446	3344
061359	2000	061359	BLUE WAVE SYSTEMS INC	2000	22.9819525553466	12.07923704920444	0.129	16.513033092480782	6.468919462865818	28345.375960935697	0.714099497863369	3344
061396	1998	061396	ESS TECHNOLOGY INC	1998	113.52332603392406	52.33501478944978	0.426	113.0132616916251	0.5100643422989513	20045.981077018307	14.56554851050264	3344
061396	1999	061396	ESS TECHNOLOGY INC	1999	183.3560572524716	66.04954586957567	0.47	138.43956322856724	44.91649402390437	23840.047218533273	15.296082949308754	3344
061396	2000	061396	ESS TECHNOLOGY INC	2000	200.22831502194066	80.60406409030263	0.436	161.1984453462668	39.02986967567388	28345.375960935697	9.368305317207533	3344
061396	2001	061396	ESS TECHNOLOGY INC	2001	200.61504797669915	89.22579197808555	0.44	162.90687049987432	37.70817747682482	31764.418883155668	2.3026464600769057	3344
061396	2002	061396	ESS TECHNOLOGY INC	2002	211.20105043639455	82.3196722279291	0.418	164.86865992121727	46.332390515177266	34059.6277129837	2.485274304357025	3344
061396	2003	061396	ESS TECHNOLOGY INC	2003	158.76499044676612	86.00365226584651	0.498	136.52736452701328	22.237625919752833	37331.59884548152	8.76244978814725	3344
061396	2004	061396	ESS TECHNOLOGY INC	2004	217.2093847881331	98.38236557556121	0.536	215.4410867307741	1.7682980573589808	40407.10191055915	4.245165348864956	3344
061396	2005	061396	ESS TECHNOLOGY INC	2005	159.048268506133	103.11621684647201	0.517	176.9906024601988	-17.942333954065788	43090.198546961474	4.982696032258406	3344
061396	2006	061396	ESS TECHNOLOGY INC	2006	91.20910048298653	103.39815569173368	0.26	128.10307949304573	-36.89397901005919	46689.000254203434	1.9246940110249464	3344
061396	2007	061396	ESS TECHNOLOGY INC	2007	64.70371001647634	104.38406952168421	0.143	58.84331666761358	5.86039334886276	50649.58430392213	0.6197760285644729	3344
061410	1998	061410	ELANTEC SEMICONDUCTOR INC	1998	24.036035848595343	24.74988961079922	0.182	16.813730865058023	7.2223049835373185	20045.981077018307	11.519251886224364	3344
061410	1999	061410	ELANTEC SEMICONDUCTOR INC	1999	29.90231665928877	37.10398689928827	0.175	20.192754906300724	9.709561752988044	23840.047218533273	3.1682027649769586	3344
061410	2000	061410	ELANTEC SEMICONDUCTOR INC	2000	66.79996040779966	27.67731741573034	0.337	35.216488831700154	31.58347157609951	28345.375960935697	17.77200956666629	3344
061410	2001	061410	ELANTEC SEMICONDUCTOR INC	2001	83.16971480107043	46.27595675304616	0.311	53.36401747564203	29.805697325428394	31764.418883155668	17.476815200180955	3344
061502	1998	061502	ROSS TECHNOLOGY INC	1998	43.22637358064634	29.037240432469535	0.282	45.35794083837443	-2.131567257728095	20045.981077018307	8.227362355802724	3344
061562	1998	061562	ADVANCED ENERGY INDS INC	1998	64.8614065840325	22.491357964157	0.876	49.17678059640162	15.68462598763088	20045.981077018307	6.248450285147533	3344
061562	1999	061562	ADVANCED ENERGY INDS INC	1999	108.57783680094437	36.373455085484245	1.09	63.10037479710786	45.47746200383651	23840.047218533273	7.881336405529955	3344
061562	2000	061562	ADVANCED ENERGY INDS INC	2000	237.40935035797946	41.64664327935028	1.498	128.11040417037842	109.29894618760105	28345.375960935697	15.939154188816975	3344
061562	2001	061562	ADVANCED ENERGY INDS INC	2001	143.11693303960848	57.298714179448126	1.185	118.13337004893769	24.98356299067079	31764.418883155668	14.06356028047953	3344
061562	2002	061562	ADVANCED ENERGY INDS INC	2002	184.5199660152931	72.6278801843318	1.398	154.5928740248706	29.927091990422504	34059.6277129837	11.929762050573997	3344
061562	2003	061562	ADVANCED ENERGY INDS INC	2003	213.34363185495343	95.53857837525364	1.347	164.28403431033777	49.05959754461564	37331.59884548152	22.570846860727453	3344
061562	2004	061562	ADVANCED ENERGY INDS INC	2004	333.7399849721816	108.08979868807961	1.651	247.00202537843933	86.7379595937423	40407.10191055915	15.20515406891615	3344
061562	2005	061562	ADVANCED ENERGY INDS INC	2005	284.55949851811056	128.99570232978965	1.527	186.77992935889705	97.77956915921351	43090.198546961474	11.456602495581402	3344
061562	2006	061562	ADVANCED ENERGY INDS INC	2006	372.90009804989654	136.62406695317802	1.583	225.0908405055017	147.80925754439482	46689.000254203434	6.3761977431042185	3344
061562	2007	061562	ADVANCED ENERGY INDS INC	2007	364.27759786375776	127.35806378647365	1.611	225.3235810465315	138.95401681722626	50649.58430392213	8.997403229733019	3344
061562	2008	061562	ADVANCED ENERGY INDS INC	2008	323.4325833857772	129.2965392445148	1.679	207.70079452485842	115.73178886091878	53492.76274386406	7.155702604151142	3344
061562	2009	061562	ADVANCED ENERGY INDS INC	2009	186.395	136.32323003845283	1.316	136.161132	50.233868	54873.0	5.611	3344
061562	2010	061562	ADVANCED ENERGY INDS INC	2010	464.7399194772088	134.45020006120853	1.788	283.7310700629211	181.00884941428774	58192.89052542133	18.686275477471252	3344
061562	2011	061562	ADVANCED ENERGY INDS INC	2011	532.0200949155334	132.48020809771543	1.471	369.1381319552394	162.88196296029406	60953.890816253	18.262425062850514	3344
061562	2012	061562	ADVANCED ENERGY INDS INC	2012	464.8395955689497	113.89928307248452	1.354	326.45198769838413	138.38760787056557	62223.95935118233	9.70900500014232	3344
061562	2013	061562	ADVANCED ENERGY INDS INC	2013	561.1563634871459	100.64919256674511	1.504	383.8041322144485	177.3522312726974	62682.861773938734	9.02034763674588	3344
061562	2014	061562	ADVANCED ENERGY INDS INC	2014	595.4658251891792	100.565	1.656	408.68309181703984	186.78273337213932	64311.75515456021	5.635349936308085	3344
061592	1998	061592	SILICON STORAGE TECHNOLOGY	1998	36.10398797417986	20.039716590257175	0.217	39.591078942851354	-3.4870909686714904	20045.981077018307	4.437202602340217	3344
061592	1999	061592	SILICON STORAGE TECHNOLOGY	1999	73.65737051792829	24.29454019466032	0.277	67.02829747675962	6.62907304116866	23840.047218533273	9.133640552995391	3344
061592	2000	061592	SILICON STORAGE TECHNOLOGY	2000	323.5085288198225	19.210437791340286	0.455	213.8289089049457	109.67961991487681	28345.375960935697	12.179363658003014	3344
061592	2001	061592	SILICON STORAGE TECHNOLOGY	2001	217.3588420539054	31.62008666595823	0.487	231.99439434037578	-14.63555228647041	31764.418883155668	15.409409635828998	3344
061592	2002	061592	SILICON STORAGE TECHNOLOGY	2002	212.14026415385806	45.8479262672811	0.5	204.33729821580295	7.80296593805512	34059.6277129837	4.804640960260108	3344
061592	2003	061592	SILICON STORAGE TECHNOLOGY	2003	239.88048294646123	48.457885131995056	0.488	218.2901678930037	21.59031505345749	37331.59884548152	1.9875639685247346	3344
061592	2004	061592	SILICON STORAGE TECHNOLOGY	2004	379.23965993229035	50.68632896183535	0.6	320.3723184208971	58.86734151139324	40407.10191055915	8.722437336630549	3344
061592	2005	061592	SILICON STORAGE TECHNOLOGY	2005	376.7225325884544	65.83430624667038	0.631	361.64039744363134	15.082135144823017	43090.198546961474	6.818927471504016	3344
061592	2006	061592	SILICON STORAGE TECHNOLOGY	2006	410.81907978356395	70.13817258538023	0.633	357.53051258307005	53.28856720049391	46689.000254203434	6.494544624041027	3344
061592	2007	061592	SILICON STORAGE TECHNOLOGY	2007	389.89072590572505	74.79077131870618	0.715	336.4670236539591	53.423702251765995	50649.58430392213	6.451351132029538	3344
061592	2008	061592	SILICON STORAGE TECHNOLOGY	2008	310.2727737570799	80.79925174537074	0.614	279.7990088105727	30.473764946507263	53492.76274386406	8.266515643784713	3344
061592	2009	061592	SILICON STORAGE TECHNOLOGY	2009	252.327	87.2206019919661	0.571	220.61651700000002	31.710482999999982	54873.0	1.11	3344
061721	1998	061721	INTL DISPLAYWORKS INC	1998	4.903954684712333	17.350521669341894	0.232	1.3076269290986366	3.5963277556136966	20045.981077018307	1.0909992561368709	3344
061737	2004	061737	ZORAN CORP	2004	319.8595152262193	43.17161977084702	1.071	268.9843297002035	50.875185526015805	40407.10191055915	9.111812492543303	3344
061737	2005	061737	ZORAN CORP	2005	345.9997726895201	50.06878335992957	1.246	258.1865851846023	87.81318750491782	43090.198546961474	11.372993110163303	3344
061737	2006	061737	ZORAN CORP	2006	417.6317318516904	57.14161758804325	1.351	323.4794304027308	94.1523014489596	46689.000254203434	9.34006041919711	3344
061737	2007	061737	ZORAN CORP	2007	480.4281953676874	70.41709441510471	1.277	365.16916368388155	115.25903168380586	50649.58430392213	10.002637344802402	3344
061737	2008	061737	ZORAN CORP	2008	431.22541692888603	73.61591246483334	1.411	350.83248112020135	80.39293580868468	53492.76274386406	5.614673065267718	3344
061737	2009	061737	ZORAN CORP	2009	380.081	52.99237198734074	1.243	328.234861	51.846138999999994	54873.0	3.758	3344
061737	2010	061737	ZORAN CORP	2010	361.484613672689	61.08982943515318	1.532	297.6826107188379	63.80200295385113	58192.89052542133	6.5094013719587425	3344
061922	1998	061922	AAVID THERMAL TECHNOLOGIES	1998	108.75148892344984	67.89330456740788	1.743	58.213147779228414	50.53834114422142	20045.981077018307	12.287910453048069	3344
061922	1999	061922	AAVID THERMAL TECHNOLOGIES	1999	126.45300280360041	76.83395314014997	2.222	57.981524568393084	68.47147823520733	23840.047218533273	14.244239631336406	3344
061922	2000	061922	AAVID THERMAL TECHNOLOGIES	2000	193.75499026691742	104.14003556153588	2.403	102.78843379854166	90.96655646837574	28345.375960935697	13.0918241274951	3344
061922	2001	061922	AAVID THERMAL TECHNOLOGIES	2001	154.382956074338	77.58728584416659	1.718	91.48044561408696	62.90251046025105	31764.418883155668	9.190228455100655	3344
061922	2002	061922	AAVID THERMAL TECHNOLOGIES	2002	125.08071367884453	67.59348469220045	1.434	65.42280219355837	59.65791148528616	34059.6277129837	5.25671146544333	3344
061922	2003	061922	AAVID THERMAL TECHNOLOGIES	2003	152.98751981787876	66.42388599864285	1.462	78.08106671002885	74.90645310784991	37331.59884548152	4.412039839322071	3344
061922	2004	061922	AAVID THERMAL TECHNOLOGIES	2004	191.75749491333676	69.19022845510065	2.157	73.00465440239094	118.75284051094582	40407.10191055915	5.900280914109698	3344
061922	2005	061922	AAVID THERMAL TECHNOLOGIES	2005	224.2400398667611	80.08455844847717	1.859	105.43050594067195	118.80953392608913	43090.198546961474	4.702234169779969	3344
062032	2001	062032	LOTUS PACIFIC INC	2001	218.06629507518076	4.679051947904742	0.19	233.45128406049943	-15.38498898531869	31764.418883155668	2.7572947296991632	3344
062135	1998	062135	XETEL CORP	1998	47.04894071874042	15.310666750772723	0.546	34.794102562768856	12.254838155971559	20045.981077018307	1.6719209379759838	3344
062135	1999	062135	XETEL CORP	1999	66.51025527519552	19.04264029728538	0.65	48.7825586542718	17.727696620923712	23840.047218533273	7.297235023041474	3344
062135	2000	062135	XETEL CORP	2000	89.55293807119997	21.51070141459707	0.52	73.69552278201195	15.857415289188022	28345.375960935697	1.8067850787209687	3344
062135	2001	062135	XETEL CORP	2001	87.04037730827801	20.692956294414373	0.54	67.38821946567707	19.652157842600943	31764.418883155668	1.3209681067631758	3344
062135	2002	062135	XETEL CORP	2002	148.97814165443734	21.296073814215003	0.632	119.52475167992586	29.453389974511477	34059.6277129837	3.114387199501164	3344
062135	2003	062135	XETEL CORP	2003	64.84897760071547	24.553077995098278	0.33	68.92859059311353	-4.079612992398062	37331.59884548152	0.823199251637044	3344
062196	2003	062196	RENEWAL FUELS INC	2003	0.1918777186064474	0.9969153112731352	0.011	0.4926411642749705	-0.3007634456685231	37331.59884548152	0.011005337588730535	3344
062418	1998	062418	SEMICONDUCTOR LASER INTL CP	1998	1.1432851502967445	3.580622226580695	0.031	2.589967906872715	-1.4466827565759703	20045.981077018307	0.20899011724699798	3344
062418	1999	062418	SEMICONDUCTOR LASER INTL CP	1999	0.9001032905415375	3.8023000355928667	0.039	1.8496390733362842	-0.9495357827947468	23840.047218533273	0.13018433179723501	3344
062490	1998	062490	PCD INC	1998	33.492845365221875	25.95179574638844	0.336	15.755746854405398	17.73709851081648	20045.981077018307	6.8801435773912845	3344
062490	1999	062490	PCD INC	1999	30.59642909842113	31.34300914462232	0.3	17.418149623727313	13.178279474693818	23840.047218533273	4.266129032258064	3344
062490	2000	062490	PCD INC	2000	40.88356593751031	35.70209997913521	0.325	18.380217097231846	22.503348840278466	28345.375960935697	3.4424129762080184	3344
062490	2001	062490	PCD INC	2001	27.0672856572586	37.920489296636084	0.218	16.858936676671057	10.208348980587546	31764.418883155668	3.627007464374576	3344
062490	2002	062490	PCD INC	2002	19.4191704642002	39.10829493087557	0.224	11.493992430678922	7.92517803352128	34059.6277129837	0.6936943958845996	3344
062559	2001	062559	SIPEX CORP	2001	53.27113857799725	87.36399326977006	0.442	57.470542750269814	-4.19940417227257	31764.418883155668	45.73738973083013	3344
062559	2002	062559	SIPEX CORP	2002	51.17787904533869	124.99212697612897	0.334	60.85857882134858	-9.680699776009888	34059.6277129837	4.574151811065706	3344
062559	2003	062559	SIPEX CORP	2003	51.66307573478596	98.33245230429141	0.314	49.200679702426925	2.4623960323590395	37331.59884548152	3.3203103505200025	3344
062559	2004	062559	SIPEX CORP	2004	63.70190887063412	94.44009216589862	0.316	63.35147703192145	0.3504318387126724	40407.10191055915	2.083536697794987	3344
062559	2005	062559	SIPEX CORP	2005	63.53677621283256	87.51799417385489	0.393	61.99736756978871	1.5394086430438476	43090.198546961474	0.9292283594568566	3344
062559	2006	062559	SIPEX CORP	2006	71.49471620002178	57.044081475352236	0.285	83.22829738170462	-11.73358118168283	46689.000254203434	3.943857900692433	3344
062601	1998	062601	PRAEGITZER INDUSTRIES INC	1998	95.06899762292396	82.53661717495987	2.0	44.712956364790145	50.35604125813382	20045.981077018307	46.44421616898681	3344
062601	1999	062601	PRAEGITZER INDUSTRIES INC	1999	128.47277556440903	156.50205658105938	1.7	81.6787959274015	46.793979637007524	23840.047218533273	53.19930875576037	3344
062724	1998	062724	JPM CO	1998	66.761506972583	27.672995647511513	3.0	1.1536881088981652	65.60781886368484	20045.981077018307	9.360868076464406	3344
062724	1999	062724	JPM CO	1999	98.16378928729526	40.18265415380739	3.4	7.069558801829715	91.09423048546554	23840.047218533273	12.223502304147464	3344
062724	2000	062724	JPM CO	2000	114.60952192418094	52.16234769177964	3.692	8.9903645781781	105.61915734600284	28345.375960935697	7.244142683880621	3344
062768	2000	062768	PINNACLE DATA SYSTEMS INC	2000	16.705269061994787	1.988322360517084	0.109	12.1619294598964	4.543339602098386	28345.375960935697	0.7152329891298188	3344
062768	2001	062768	PINNACLE DATA SYSTEMS INC	2001	16.760057365051672	2.414603332034525	0.099	13.868200097579725	2.8918572674719476	31764.418883155668	0.4342908844152907	3344
062768	2002	062768	PINNACLE DATA SYSTEMS INC	2002	12.106279446976133	3.237575714639935	0.096	8.333736000617904	3.7725434463582292	34059.6277129837	0.16924807090603392	3344
062768	2003	062768	PINNACLE DATA SYSTEMS INC	2003	18.60563437538111	3.612903225806452	0.097	13.792550916703929	4.813083458677183	37331.59884548152	0.16728113134870412	3344
062768	2004	062768	PINNACLE DATA SYSTEMS INC	2004	29.040836829974587	3.76092402208041	0.106	23.108845306339543	5.931991523635046	40407.10191055915	0.37310599898046615	3344
062768	2005	062768	PINNACLE DATA SYSTEMS INC	2005	38.997735637911894	4.242657810321572	0.162	30.01241989491262	8.985315742999273	43090.198546961474	0.25611988950860964	3344
062768	2006	062768	PINNACLE DATA SYSTEMS INC	2006	68.92544576388133	4.5702367863255615	0.18	60.12105530740458	8.804390456476746	46689.000254203434	0.911478609320336	3344
062768	2007	062768	PINNACLE DATA SYSTEMS INC	2007	69.5007859401928	5.657834101382488	0.181	57.8854335927883	11.615352347404496	50649.58430392213	0.24243284914387728	3344
062768	2008	062768	PINNACLE DATA SYSTEMS INC	2008	62.583582441787286	5.933179723502304	0.167	52.448670547514155	10.134911894273129	53492.76274386406	0.3755700617007959	3344
062768	2009	062768	PINNACLE DATA SYSTEMS INC	2009	35.638	6.547045555013999	0.121	31.069366999999996	4.568633000000002	54873.0	0.287	3344
062768	2010	062768	PINNACLE DATA SYSTEMS INC	2010	29.786351589212376	6.671567518660937	0.148	19.038331276427865	10.748020312784512	58192.89052542133	0.1875339288358091	3344
063531	2001	063531	MICROVISION INC	2001	7.9557047178319555	11.900629331821994	0.228	31.57965906234753	-23.623954344515575	31764.418883155668	4.262610269169871	3344
063531	2002	063531	MICROVISION INC	2002	12.293967714528462	16.018433179723502	0.213	30.093719780644165	-17.7997520661157	34059.6277129837	1.5076440000445392	3344
063531	2003	063531	MICROVISION INC	2003	11.912679377210454	17.634857123425864	0.191	29.64839546323021	-17.735716086019753	37331.59884548152	1.7047267924943599	3344
063531	2004	063531	MICROVISION INC	2004	9.639754489349665	18.954240957573425	0.166	29.64285629859768	-20.00310180924801	40407.10191055915	1.1279948806386186	3344
063531	2005	063531	MICROVISION INC	2005	12.892001293921194	13.062655507803665	0.142	29.227097157744733	-16.33509586382354	43090.198546961474	1.311291500418047	3344
063531	2006	063531	MICROVISION INC	2006	6.394124269165124	15.568502544687894	0.127	25.868623125249663	-19.47449885608454	46689.000254203434	2.2340569103159034	3344
063531	2007	063531	MICROVISION INC	2007	9.927466242448345	15.495959103635107	0.152	26.74627577978524	-16.81880953733689	50649.58430392213	1.0731964619005112	3344
063531	2008	063531	MICROVISION INC	2008	6.500747325361862	17.106490500985913	0.165	31.654145689112642	-25.153398363750778	53492.76274386406	0.4918179379415184	3344
063531	2009	063531	MICROVISION INC	2009	3.833	17.855076570672903	0.161	33.036446999999995	-29.203446999999997	54873.0	1.36	3344
063531	2010	063531	MICROVISION INC	2010	4.794950128472292	19.43844237422219	0.108	45.62100876039411	-40.82605863192182	58192.89052542133	1.8615209988649262	3344
063531	2011	063531	MICROVISION INC	2011	5.782435479055787	20.923115287396712	0.103	33.93937553402856	-28.15694005497277	60953.890816253	0.5318120286211565	3344
063531	2012	063531	MICROVISION INC	2012	8.603931168550652	21.033526706677506	0.067	26.36080762782469	-17.75687645927404	62223.95935118233	0.5057069935576914	3344
063531	2013	063531	MICROVISION INC	2013	6.003405896715157	20.64230631568672	0.064	16.563195798026225	-10.559789901311067	62682.861773938734	0.3528925930097233	3344
063531	2014	063531	MICROVISION INC	2014	3.558918742277095	9.438335432387523	0.066	12.706497962684967	-9.147579220407872	64311.75515456021	0.1910757472261709	3344
064163	1998	064163	DIGITAL POWER CORP	1998	9.743931174025894	2.446078622102901	0.34	3.00788024114058	6.736050932885314	20045.981077018307	0.1853754147332129	3344
064163	1999	064163	DIGITAL POWER CORP	1999	9.062416998671978	3.3958667736757624	0.285	1.7834233436623868	7.278993655009591	23840.047218533273	0.19354838709677422	3344
064163	2001	064163	DIGITAL POWER CORP	2001	7.636352883776631	3.5549521841510887	0.177	3.4149112172331706	4.22144166654346	31764.418883155668	0.15041845736258766	3344
064163	2002	064163	DIGITAL POWER CORP	2002	6.777631883834093	3.58618866836465	0.041	5.557289719626168	1.220342164207925	34059.6277129837	0.04119854357581089	3344
064163	2003	064163	DIGITAL POWER CORP	2003	5.991300459368266	1.74158431039165	0.041	5.220085369323955	0.7712150900443113	37331.59884548152	0.07373576184449458	3344
064163	2004	064163	DIGITAL POWER CORP	2004	7.3560326559558264	1.942669037435725	0.037	6.640221364829839	0.7158112911259883	40407.10191055915	0.029284482478117983	3344
064163	2005	064163	DIGITAL POWER CORP	2005	9.491086806375185	2.053249650641104	0.032	7.933849153268461	1.5572376531067236	43090.198546961474	0.05820906579741129	3344
064163	2006	064163	DIGITAL POWER CORP	2006	11.467298543777463	2.056393111713871	0.033	9.753158477684568	1.714140066092894	46689.000254203434	0.02699139389786872	3344
064163	2007	064163	DIGITAL POWER CORP	2007	11.51165653466659	2.380818844643859	0.033	9.712386606821582	1.7992699278450097	50649.58430392213	0.12172360626470825	3344
064163	2008	064163	DIGITAL POWER CORP	2008	11.701541850220263	2.6736409598881004	0.033	9.459369100062933	2.2421727501573305	53492.76274386406	0.07849215575228273	3344
064163	2009	064163	DIGITAL POWER CORP	2009	8.659	2.2812675266404936	0.033	6.853191000000001	1.805809	54873.0	0.059	3344
064163	2010	064163	DIGITAL POWER CORP	2010	10.516519311307587	2.3452974200466787	0.031	8.124804256782731	2.391715054524854	58192.89052542133	0.0848837783151557	3344
064163	2011	064163	DIGITAL POWER CORP	2011	11.561782600191478	2.4148138817156894	0.03	8.368111675022389	3.193670925169089	60953.890816253	0.2610713595049314	3344
064163	2012	064163	DIGITAL POWER CORP	2012	8.834329325365397	2.676829043779226	0.029	6.912578299373604	1.9217510259917927	62223.95935118233	0.14611421577464254	3344
064163	2013	064163	DIGITAL POWER CORP	2013	8.996901865036213	2.751152073732719	0.028	7.355653583372659	1.6412482816635539	62682.861773938734	0.2027255321545219	3344
064163	2014	064163	DIGITAL POWER CORP	2014	9.21336151874432	2.7202030390785152	0.026	7.844555415990116	1.3688061027542038	64311.75515456021	0.10984547787398231	3344
064485	1999	064485	NEOMAGIC CORP	1999	73.57473808469824	6.214023589479239	0.162	55.086119521912345	18.488618562785895	23840.047218533273	5.202764976958526	3344
064485	2000	064485	NEOMAGIC CORP	2000	158.70071595895607	11.508241626219425	0.234	120.12557062258736	38.57514533636873	28345.375960935697	6.102716978565681	3344
064485	2001	064485	NEOMAGIC CORP	2001	191.9792421307864	17.667339685688308	0.278	162.98817067581354	28.991071454972857	31764.418883155668	8.372540149287492	3344
064485	2002	064485	NEOMAGIC CORP	2002	58.551015679307945	25.664746543778804	0.138	60.19511392600602	-1.644098246698076	34059.6277129837	2.510884209823069	3344
064485	2003	064485	NEOMAGIC CORP	2003	0.3130208545062807	15.499359577434456	0.144	18.64717752754177	-18.334156673035487	37331.59884548152	1.6419963682385958	3344
064485	2004	064485	NEOMAGIC CORP	2004	1.8480839531604851	17.056095905903643	0.155	21.740985419639163	-19.892901466478676	40407.10191055915	4.273365220880921	3344
064485	2005	064485	NEOMAGIC CORP	2005	1.6506237924130756	15.175539199857475	0.175	14.278398510242086	-12.627774717829011	43090.198546961474	0.5492819117973902	3344
064485	2006	064485	NEOMAGIC CORP	2006	2.238805970149254	15.425081164364718	0.117	17.36939481424992	-15.130588844100664	46689.000254203434	0.12042314200587582	3344
064485	2007	064485	NEOMAGIC CORP	2007	8.855557449387346	15.404722393952213	0.103	15.044252220517773	-6.188694771130427	50649.58430392213	0.20287267710784712	3344
064485	2008	064485	NEOMAGIC CORP	2008	0.5624606670862177	15.828977053871128	0.091	13.591095028319694	-13.028634361233479	53492.76274386406	0.06458215346706807	3344
064485	2009	064485	NEOMAGIC CORP	2009	2.083	16.398133817323433	0.097	14.163318999999996	-12.080318999999996	54873.0	0.206	3344
064637	1998	064637	EMCORE CORP	1998	22.761673419920626	34.70480537720706	0.308	20.12971865198463	2.631954767935998	20045.981077018307	26.132029801754577	3344
064637	1999	064637	EMCORE CORP	1999	34.43470562195662	63.909387334820664	0.368	27.64651733805519	6.788188283901429	23840.047218533273	19.711981566820278	3344
064637	2000	064637	EMCORE CORP	2000	68.96037480616319	83.18636167043107	0.625	53.53888284008051	15.421491966082677	28345.375960935697	38.260997699012734	3344
064637	2001	064637	EMCORE CORP	2001	136.4741191951151	119.44434604985065	0.867	106.0047584901755	30.469360704939593	31764.418883155668	101.02239312372767	3344
064637	2002	064637	EMCORE CORP	2002	67.79331119178188	214.04032258064518	0.558	89.79290492005869	-21.999593728276807	34059.6277129837	6.958099967709249	3344
064637	2003	064637	EMCORE CORP	2003	91.95983576568152	159.36547158904142	0.749	79.04704744095288	12.91278832472864	37331.59884548152	3.0407747757662467	3344
064637	2004	064637	EMCORE CORP	2004	78.57438347953092	171.84747741518655	0.56	73.96037046105009	4.614013018480836	40407.10191055915	4.5260794585624575	3344
064637	2005	064637	EMCORE CORP	2005	111.55961217335046	137.1872879439041	0.65	87.11188921236918	24.44772296098129	43090.198546961474	5.6695630086678594	3344
064637	2006	064637	EMCORE CORP	2006	130.3092203217489	139.21397873784213	0.75	109.72033082761374	20.58888949413517	46689.000254203434	7.589772337973777	3344
064637	2007	064637	EMCORE CORP	2007	160.6026172755336	138.45623162180502	0.738	148.9821771490256	11.620440126507969	50649.58430392213	10.209567475452404	3344
064637	2008	064637	EMCORE CORP	2008	235.31210667086216	149.3530875367564	1.006	215.4633417243549	19.848764946507252	53492.76274386406	17.12718709946645	3344
064637	2009	064637	EMCORE CORP	2009	176.356	181.86595998173902	0.7	197.2659	-20.909899999999993	54873.0	1.323	3344
064637	2010	064637	EMCORE CORP	2010	193.49545794808506	159.54107742254996	0.9	147.46049729904706	46.034960649038	58192.89052542133	1.3847900113507379	3344
064637	2011	064637	EMCORE CORP	2011	206.84586005620812	160.89033181092833	1.0	159.91105529190128	46.93480476430683	60953.890816253	7.091471668922838	3344
064637	2012	064637	EMCORE CORP	2012	168.45910946998137	165.1514658510396	1.06	130.6627444123304	37.79636505765097	62223.95935118233	11.585718758598441	3344
064637	2013	064637	EMCORE CORP	2013	172.49738402511335	132.75198212561958	0.857	128.8860932723281	43.61129075278523	62682.861773938734	6.796936591958554	3344
064637	2014	064637	EMCORE CORP	2014	178.48513628054695	140.61323875530104	0.769	135.85006178323786	42.63507449730909	64311.75515456021	2.770136799158159	3344
064753	1998	064753	ASD GROUP INC	1998	7.437595252089695	8.880431335236285	0.118	6.038604339074032	1.3989909130156621	20045.981077018307	0.11453130719185765	3344
064753	1999	064753	ASD GROUP INC	1999	5.672716541242438	8.754907459338195	0.111	5.387988195366682	0.2847283458757559	23840.047218533273	0.03341013824884793	3344
064753	2000	064753	ASD GROUP INC	2000	8.118380679006236	9.289991694957237	0.115	5.4749810287373375	2.643399650268899	28345.375960935697	0.018135860263196673	3344
064853	1999	064853	QORVO INC	1999	26.767006049874578	24.08655203308909	0.23	21.561204072598496	5.205801977276081	23840.047218533273	23.064516129032256	3344
064853	2000	064853	QORVO INC	2000	100.86245009733084	51.98952376375607	0.423	69.8786578244086	30.98379227292223	28345.375960935697	29.626061231198214	3344
064853	2001	064853	QORVO INC	2001	213.610893445895	91.20352331361505	0.817	122.24398406197788	91.36690938391709	31764.418883155668	121.5731734901606	3344
064853	2002	064853	QORVO INC	2002	259.0283463350583	209.1532258064516	1.145	160.06637444967947	98.96197188537884	34059.6277129837	99.92539723190328	3344
064853	2003	064853	QORVO INC	2003	300.262612301313	292.1601447636281	1.325	217.96357575511198	82.29903654620107	37331.59884548152	57.147416497001046	3344
064853	2004	064853	QORVO INC	2004	428.7309936089559	345.9488803438136	1.794	296.3210262817969	132.409967327159	40407.10191055915	148.57211032657622	3344
064853	2005	064853	QORVO INC	2005	569.4818195329644	491.0209444487746	1.895	388.10740857310225	181.3744109598622	43090.198546961474	41.06490840009737	3344
064853	2006	064853	QORVO INC	2006	575.7744126084904	512.0288612499861	2.57	410.29306932490834	165.48134328358202	46689.000254203434	121.03875341285413	3344
064853	2007	064853	QORVO INC	2007	734.0937067969622	623.7363121113741	3.011	497.4221360528757	236.67157074408655	50649.58430392213	67.05753469122779	3344
064853	2008	064853	QORVO INC	2008	1006.5440135305223	683.9344081879711	3.252	681.061398678414	325.4826148521083	53492.76274386406	105.90479597007364	3344
064853	2009	064853	QORVO INC	2009	956.27	778.6288354537469	4.646	640.047042	316.22295799999995	54873.0	122.678	3344
064853	2010	064853	QORVO INC	2010	896.7831347239363	901.511319017431	4.095	615.325662087523	281.45747263641323	58192.89052542133	45.86388984849233	3344
064853	2011	064853	QORVO INC	2011	1007.2092568381393	778.9155688436265	3.687	573.6519111788263	433.557345659313	60953.890816253	8.165731966737575	3344
064853	2012	064853	QORVO INC	2012	1081.797517048435	765.2921818389444	3.726	621.9288686833363	459.8686483650988	62223.95935118233	24.397278859929596	3344
064853	2013	064853	QORVO INC	2013	893.8960585978375	761.5799724093159	3.986	541.7893555468927	352.10670305094476	62682.861773938734	43.220895746518	3344
064853	2014	064853	QORVO INC	2014	984.5970813802682	822.414276371111	4.191	642.3062855508921	342.2907958293761	64311.75515456021	50.432920412797465	3344
064915	1998	064915	INTEST CORP	1998	9.921821766110282	1.6476664357246331	0.111	6.131592744976671	3.7902290211336114	20045.981077018307	0.30817186780489536	3344
064915	1999	064915	INTEST CORP	1999	20.360631547882544	2.3449949741351834	0.164	12.195883724361812	8.164747823520733	23840.047218533273	1.5633640552995391	3344
064915	2000	064915	INTEST CORP	2000	57.83826586162526	4.01094787486039	0.386	36.29283975056913	21.54542611105613	28345.375960935697	4.590639629121657	3344
064915	2001	064915	INTEST CORP	2001	38.164761890681135	14.884346994438738	0.229	36.72701258187087	1.4377493088102624	31764.418883155668	2.689436779009274	3344
064915	2002	064915	INTEST CORP	2002	36.399938209623855	13.901975369865278	0.249	27.833356762184295	8.56658144743956	34059.6277129837	1.1312897371087531	3344
064915	2003	064915	INTEST CORP	2003	39.04874181877312	13.233870967741936	0.26	30.8116915321761	8.237050286597016	37331.59884548152	1.8235844384526496	3344
064915	2004	064915	INTEST CORP	2004	60.1205602505762	14.847602099225826	0.255	46.1028519084485	14.017708342127701	40407.10191055915	2.522803934966757	3344
064915	2005	064915	INTEST CORP	2005	46.65023037042866	17.200729968375594	0.231	37.67295529851986	8.9772750719088	43090.198546961474	1.5324859504482098	3344
064915	2006	064915	INTEST CORP	2006	56.602026364527724	12.276634245645782	0.224	41.582554381377776	15.019471983149948	46689.000254203434	0.8398476024375305	3344
064915	2007	064915	INTEST CORP	2007	46.11953866257599	12.703008369147252	0.209	37.58006079200045	8.539477870575533	50649.58430392213	0.6917958289377587	3344
064915	2008	064915	INTEST CORP	2008	38.14309314033983	8.722830572827823	0.175	34.822411894273124	3.3206812460667106	53492.76274386406	0.39742863672041895	3344
064915	2009	064915	INTEST CORP	2009	23.499	4.821093504267942	0.107	21.509589	1.9894110000000005	54873.0	0.086	3344
064915	2010	064915	INTEST CORP	2010	46.739636231209666	4.240826907016345	0.128	31.45615958888867	15.283476642320995	58192.89052542133	0.6504466268568326	3344
064915	2011	064915	INTEST CORP	2011	48.658108483719204	4.731194629395257	0.131	32.268697433574566	16.389411050144638	60953.890816253	0.7542061496809128	3344
064915	2012	064915	INTEST CORP	2012	44.61495736605535	4.511087877620646	0.131	31.75382779794904	12.861129568106314	62223.95935118233	0.40893004544721384	3344
064915	2013	064915	INTEST CORP	2013	40.44604936498492	4.803835448262724	0.127	27.551905045240982	12.89414431974394	62682.861773938734	0.3979427112662837	3344
064915	2014	064915	INTEST CORP	2014	42.682515854293676	4.75324649517621	0.125	28.72563136341819	13.956884490875485	64311.75515456021	0.7670722026325991	3344
065036	2004	065036	QUICKLOGIC CORP	2004	37.664102932113096	28.88018433179724	0.154	30.56844495850465	7.0956579736084455	40407.10191055915	1.4349396414277813	3344
065036	2005	065036	QUICKLOGIC CORP	2005	42.191447880329775	25.99208823096018	0.146	30.419473513957744	11.771974366372033	43090.198546961474	1.8690401854223333	3344
065036	2006	065036	QUICKLOGIC CORP	2006	31.70643134691506	26.638178252836564	0.147	31.25089061989323	0.4555407270218279	46689.000254203434	2.347213138580045	3344
065036	2007	065036	QUICKLOGIC CORP	2007	32.59000435581312	27.74106525509221	0.131	34.21864382705529	-1.6286394712421697	50649.58430392213	2.322892152884849	3344
065036	2008	065036	QUICKLOGIC CORP	2008	31.377831969792318	29.366491731181213	0.088	29.67058684707363	1.707245122718691	53492.76274386406	0.5265929436545551	3344
065036	2009	065036	QUICKLOGIC CORP	2009	15.074	26.635376611626327	0.084	18.175668	-3.101668000000002	54873.0	0.124	3344
065036	2010	065036	QUICKLOGIC CORP	2010	26.502721184777553	25.33126282261995	0.078	21.665255831832805	4.837465352944747	58192.89052542133	0.8182401421309776	3344
065036	2011	065036	QUICKLOGIC CORP	2011	21.586592408816234	24.811967931233987	0.081	22.958842483451548	-1.3722500746353152	60953.890816253	0.8663701411719203	3344
065036	2012	065036	QUICKLOGIC CORP	2012	15.370848461783735	24.834206353020328	0.086	21.266926550301882	-5.8960780885181485	62223.95935118233	1.1774528686774766	3344
065036	2013	065036	QUICKLOGIC CORP	2013	26.74654793902214	23.89470902013552	0.089	31.705535608034637	-4.9589876690125	62682.861773938734	1.179749971843676	3344
065036	2014	065036	QUICKLOGIC CORP	2014	28.435607569212543	20.729262672811057	0.098	33.66252259428326	-5.226915025070721	64311.75515456021	0.9655325197998782	3344
065144	1998	065144	GENERAL SEMICONDUCTOR INC	1998	208.65422126052653	451.188669701568	5.0	65.4309685674606	143.22325269306592	20045.981077018307	31.75941341078956	3344
065144	1999	065144	GENERAL SEMICONDUCTOR INC	1999	246.1750036889479	470.720999179966	5.3	71.52055481776596	174.65444887118196	23840.047218533273	31.483870967741936	3344
065144	2000	065144	GENERAL SEMICONDUCTOR INC	2000	325.7916790392293	496.5812181142533	5.7	91.00979906958328	234.78187996964598	28345.375960935697	39.5441098126339	3344
065494	1998	065494	BEI TECHNOLOGIES INC	1998	64.63566238238155	75.03301797795208	1.107	36.54732409897375	28.0883382834078	20045.981077018307	8.13526501599896	3344
065494	1999	065494	BEI TECHNOLOGIES INC	1999	94.08469824406079	93.77105738389801	1.113	57.04814342629481	37.03655481776598	23840.047218533273	12.20852534562212	3344
065494	2000	065494	BEI TECHNOLOGIES INC	2000	144.65406314955953	101.19969391593065	1.189	95.40487379986143	49.249189349698106	28345.375960935697	9.530394568309852	3344
065494	2001	065494	BEI TECHNOLOGIES INC	2001	176.66735662433283	101.30322336466284	1.118	118.32034093765246	58.34701568668038	31764.418883155668	9.540827866998416	3344
065494	2002	065494	BEI TECHNOLOGIES INC	2002	143.3830230941531	106.44904263404348	1.104	94.87828222754305	48.504740866610035	34059.6277129837	8.457949648698905	3344
065494	2003	065494	BEI TECHNOLOGIES INC	2003	173.72576120980526	101.17947396197701	1.018	123.87780966705961	49.847951542745655	37331.59884548152	7.073130468277114	3344
065494	2004	065494	BEI TECHNOLOGIES INC	2004	237.49018548380286	103.73348446742943	1.024	172.2376556603375	65.25252982346535	40407.10191055915	12.868903133439625	3344
065554	1998	065554	POWER-ONE INC	1998	53.32504564298087	20.27320593541736	1.841	7.401549520683686	45.92349612229719	20045.981077018307	13.659924669098983	3344
065554	1999	065554	POWER-ONE INC	1999	121.2347646451232	51.24345235234754	3.244	21.530232256160513	99.70453238896269	23840.047218533273	31.256912442396313	3344
065554	2000	065554	POWER-ONE INC	2000	337.16387871589296	81.82966715076807	7.561	48.45404599293936	288.7098327229536	28345.375960935697	59.1285719143534	3344
065554	2001	065554	POWER-ONE INC	2001	268.88167718852105	158.02304147465438	2.507	173.10548738116708	95.77618980735396	31764.418883155668	34.53856593530875	3344
065554	2002	065554	POWER-ONE INC	2002	178.1540125125512	165.52032916586376	2.28	107.60395458407353	70.55005792847764	34059.6277129837	7.806567270540815	3344
065554	2003	065554	POWER-ONE INC	2003	208.41009797146225	116.11031137005091	2.371	117.79435261595998	90.61574535550227	37331.59884548152	8.05150497991526	3344
065554	2004	065554	POWER-ONE INC	2004	236.62819657737214	124.7805926261027	2.422	138.4540410478948	98.17415552947732	40407.10191055915	7.950194687577957	3344
065554	2005	065554	POWER-ONE INC	2005	228.6717199534888	132.21782402171453	2.513	127.15116059485406	101.52055935863473	43090.198546961474	6.599849714775577	3344
065554	2006	065554	POWER-ONE INC	2006	306.9034390093329	99.11590152434611	4.167	111.28725986854053	195.61617914079235	46689.000254203434	5.8571324758375125	3344
065554	2007	065554	POWER-ONE INC	2007	484.4544817529307	143.33864089345167	4.159	277.20323561161297	207.25124614131772	50649.58430392213	8.55716952040899	3344
065554	2008	065554	POWER-ONE INC	2008	528.4957127123977	154.74495130138118	4.541	276.6230726872245	251.87264002517313	53492.76274386406	8.742436436257414	3344
065554	2009	065554	POWER-ONE INC	2009	431.572	148.13718153125305	3.342	221.92243399999998	209.64956600000002	54873.0	6.749	3344
065554	2010	065554	POWER-ONE INC	2010	1059.278329657879	148.7066020238831	3.47	547.9462439557326	511.3320857021466	58192.89052542133	27.275329418151312	3344
065554	2011	065554	POWER-ONE INC	2011	1046.6558230988583	144.17327251367914	3.263	650.138224605977	396.51759849288135	60953.890816253	40.81705666215432	3344
065554	2012	065554	POWER-ONE INC	2012	1051.7860999969143	176.19462871261433	3.231	716.5603036318566	335.2257963650576	62223.95935118233	29.738986878184388	3344
065590	1998	065590	STONERIDGE INC	1998	262.0614502764587	130.59268123700951	6.6	93.37154686792925	168.68990340852943	20045.981077018307	12.892446837400968	3344
065590	1999	065590	STONERIDGE INC	1999	398.5368157001623	189.49889646869983	6.65	166.7344547734986	231.80236092666368	23840.047218533273	20.263824884792626	3344
065590	2000	065590	STONERIDGE INC	2000	440.2599887822099	214.47770536470415	6.52	186.92327691444785	253.33671186776206	28345.375960935697	32.55386917243803	3344
065590	2001	065590	STONERIDGE INC	2001	432.0623327468693	240.47287231486376	5.6	206.08439167911052	225.97794106775874	31764.418883155668	27.10698936892106	3344
065590	2002	065590	STONERIDGE INC	2002	491.6250868927164	256.84413115605776	5.5	227.3681161659071	264.2569707268093	34059.6277129837	16.319077152623905	3344
065590	2003	065590	STONERIDGE INC	2003	493.2436277897475	270.2171371896143	5.3	227.53868043416398	265.7049473555835	37331.59884548152	29.0342816265889	3344
065590	2004	065590	STONERIDGE INC	2004	575.6118770420525	291.1290322580645	6.0	262.845829780408	312.7660472616445	40407.10191055915	25.940628423301774	3344
065590	2005	065590	STONERIDGE INC	2005	587.1464666334443	319.7718894009217	6.0	281.2626222886668	305.88384434477746	43090.198546961474	30.622201996041785	3344
065590	2006	065590	STONERIDGE INC	2006	643.4061444601808	341.2373271889401	6.0	309.4354867995787	333.97065766060206	46689.000254203434	26.88239019174271	3344
065590	2007	065590	STONERIDGE INC	2007	688.521485521656	365.99078341013825	5.6	345.68452550044503	342.8369600212109	50649.58430392213	18.40156617706727	3344
065590	2008	065590	STONERIDGE INC	2008	740.1451384518564	340.0349115310066	6.4	335.73001887979854	404.4151195720579	53492.76274386406	24.415034725327136	3344
065590	2009	065590	STONERIDGE INC	2009	475.152	314.7161275729473	5.2	184.44839999999994	290.70360000000005	54873.0	11.998	3344
065590	2010	065590	STONERIDGE INC	2010	642.5900823436583	317.33770640126664	6.8	203.99498249944355	438.59509984421476	58192.89052542133	18.332922074717466	3344
065590	2011	065590	STONERIDGE INC	2011	787.9152554586727	336.9359464085329	10.8	88.3651262623664	699.5501291963063	60953.890816253	25.42061496809128	3344
065590	2012	065590	STONERIDGE INC	2012	965.3199345833805	409.71968760980695	8.7	357.02230953580954	608.2976250475709	62223.95935118233	25.002609182424546	3344
065590	2013	065590	STONERIDGE INC	2013	972.3527360019698	426.06197597122787	9.3	313.0392498820246	659.3134861199452	62682.861773938734	23.786462439463904	3344
065590	2014	065590	STONERIDGE INC	2014	674.5902392696302	419.8559637306262	4.2	348.5287419707321	326.061497298898	64311.75515456021	22.8497055402736	3344
065643	2001	065643	FAIRCHILD SEMICONDUCTOR INTL	2001	1040.6286499992607	1507.6647397425043	9.798	553.9052131229947	486.723436876266	31764.418883155668	138.4302194073739	3344
065643	2002	065643	FAIRCHILD SEMICONDUCTOR INTL	2002	1090.5229010581602	1671.3921860733337	9.722	563.5197080404729	527.0031930176874	34059.6277129837	148.20340945784943	3344
065643	2003	065643	FAIRCHILD SEMICONDUCTOR INTL	2003	1139.3146062848082	1822.8891345091065	9.74	581.7945119720314	557.5200943127768	37331.59884548152	152.2038188521433	3344
065643	2004	065643	FAIRCHILD SEMICONDUCTOR INTL	2004	1351.6593919643383	1860.7204845736958	9.024	704.5364897380263	647.122902226312	40407.10191055915	210.41442965758847	3344
065643	2005	065643	FAIRCHILD SEMICONDUCTOR INTL	2005	1245.9237111058653	1976.152073732719	8.929	706.8624832795656	539.0612278262998	43090.198546961474	105.72883042111614	3344
065643	2006	065643	FAIRCHILD SEMICONDUCTOR INTL	2006	1498.9831862584886	2023.5023041474656	9.344	844.1970003994625	654.786185859026	46689.000254203434	118.24306788335566	3344
065643	2007	065643	FAIRCHILD SEMICONDUCTOR INTL	2007	1581.5389277124407	2120.1279916876247	9.691	846.7682716891084	734.7706560233322	50649.58430392213	144.14103708512536	3344
065643	2008	065643	FAIRCHILD SEMICONDUCTOR INTL	2008	1547.9468219005664	2217.1844190192814	9.771	789.959880427942	757.9869414726243	53492.76274386406	173.27888561010263	3344
065643	2009	065643	FAIRCHILD SEMICONDUCTOR INTL	2009	1187.5	2372.0968675097115	8.563	568.222501	619.277499	54873.0	61.7	3344
065643	2010	065643	FAIRCHILD SEMICONDUCTOR INTL	2010	1618.2450887166933	2287.8387722022603	8.977	735.8216136929211	882.4234750237723	58192.89052542133	155.94926713714653	3344
065643	2011	065643	FAIRCHILD SEMICONDUCTOR INTL	2011	1635.5943544817221	2437.9099751187514	8.817	768.0184374967829	867.5759169849392	60953.890816253	180.23593115451558	3344
065643	2012	065643	FAIRCHILD SEMICONDUCTOR INTL	2012	1437.314215771988	2589.79868807962	9.077	680.2688746490028	757.0453411229854	62223.95935118233	144.12174919589742	3344
065643	2013	065643	FAIRCHILD SEMICONDUCTOR INTL	2013	1441.7612179158375	2603.6366065761786	8.659	725.7204517942511	716.0407661215866	62682.861773938734	70.57851860194467	3344
065643	2014	065643	FAIRCHILD SEMICONDUCTOR INTL	2014	1463.8031923041574	2637.931610417664	8.272	714.2985080113968	749.5046842927605	64311.75515456021	50.307382723798625	3344
065675	2010	065675	CUI GLOBAL INC	2010	41.40753029720598	3.0613486975574125	0.086	34.393918303761104	7.013611993444879	58192.89052542133	0.3573014854661205	3344
065675	2011	065675	CUI GLOBAL INC	2011	40.08482689753858	3.2301012449452045	0.061	34.8945222825024	5.190304615036183	60953.890816253	0.40901179655772574	3344
065675	2012	065675	CUI GLOBAL INC	2012	42.258519074704544	2.973	0.069	38.96174362033675	3.2967754543677947	62223.95935118233	0.6508724157234077	3344
065675	2013	065675	CUI GLOBAL INC	2013	62.22121914688443	3.461	0.17	48.311065060834245	13.910154086050184	62682.861773938734	2.3679468408604576	3344
065675	2014	065675	CUI GLOBAL INC	2014	77.65795574073506	10.538580545349062	0.2	63.15758299888688	14.500372741848183	64311.75515456021	1.0116860819318036	3344
065735	1999	065735	INTL MANUFACTURING SVCS INC	1999	184.4538881510993	54.510297915223276	3.492	86.50413339235652	97.9497547587428	23840.047218533273	26.0852534562212	3344
065739	1998	065739	PERICOM SEMICONDUCTOR CORP	1998	25.590237863648422	7.505266853932584	0.172	17.87763623974659	7.712601623901835	20045.981077018307	3.3733602540941994	3344
065739	1999	065739	PERICOM SEMICONDUCTOR CORP	1999	35.29408292754906	10.771286376228886	0.17	24.888611480005903	10.405471447543158	23840.047218533273	3.442396313364055	3344
065739	2000	065739	PERICOM SEMICONDUCTOR CORP	2000	60.03299350028045	14.070228408016987	0.231	40.06345573921937	19.969537761061076	28345.375960935697	4.770864740487174	3344
065739	2001	065739	PERICOM SEMICONDUCTOR CORP	2001	80.06934074544998	18.745494737853814	0.264	54.4584946109378	25.61084613451218	31764.418883155668	6.535851617281158	3344
065739	2002	065739	PERICOM SEMICONDUCTOR CORP	2002	39.24229551247394	25.06110304275442	0.241	31.68040704410289	7.561888468371046	34059.6277129837	2.4741395628500484	3344
065739	2003	065739	PERICOM SEMICONDUCTOR CORP	2003	36.55270539452823	26.548387096774196	0.216	32.73640717102321	3.8162982235050174	37331.59884548152	2.0271831838441647	3344
065739	2004	065739	PERICOM SEMICONDUCTOR CORP	2004	56.073180409803534	26.596774193548384	0.274	47.8121742213817	8.261006188421831	40407.10191055915	3.4783457521231247	3344
065739	2005	065739	PERICOM SEMICONDUCTOR CORP	2005	69.55438403231307	27.03490019609399	0.257	56.98957082032855	12.564813211984506	43090.198546961474	2.9316202228878048	3344
065739	2006	065739	PERICOM SEMICONDUCTOR CORP	2006	96.1233976104877	28.02103759790531	0.544	63.892864146421175	32.23053346406653	46689.000254203434	7.461044151691635	3344
065739	2007	065739	PERICOM SEMICONDUCTOR CORP	2007	116.8210139575403	53.68468672246099	0.597	76.06108270363428	40.75993125390602	50649.58430392213	6.072993589223403	3344
065739	2008	065739	PERICOM SEMICONDUCTOR CORP	2008	161.01321585903082	57.57106748766828	0.689	98.7781230333543	62.23509282567652	53492.76274386406	9.9625423509891	3344
065739	2009	065739	PERICOM SEMICONDUCTOR CORP	2009	128.645	69.22027183183845	0.724	77.84494800000002	50.800051999999994	54873.0	26.938	3344
065739	2010	065739	PERICOM SEMICONDUCTOR CORP	2010	148.61614097558015	92.2450351956095	0.869	83.77092075181582	64.84522022376433	58192.89052542133	10.21862508019543	3344
065739	2011	065739	PERICOM SEMICONDUCTOR CORP	2011	171.24224050072576	93.68907892090975	0.991	93.27447266288513	77.96776783784063	60953.890816253	11.327596209630633	3344
065739	2012	065739	PERICOM SEMICONDUCTOR CORP	2012	141.05201444102732	109.5445721345002	0.976	70.77224936486219	70.27976507616512	62223.95935118233	4.102583564997106	3344
065739	2013	065739	PERICOM SEMICONDUCTOR CORP	2013	132.5991505775662	108.80670291325164	0.99	62.569010443382105	70.03014013418411	62682.861773938734	12.417877388594812	3344
065739	2014	065739	PERICOM SEMICONDUCTOR CORP	2014	130.78439181806112	117.02683636869456	0.94	58.119706299847856	72.66468551821329	64311.75515456021	4.569202651060609	3344
065904	2000	065904	APPLIED MICRO CIRCUITS CORP	2000	69.28635058893398	58.799521320148635	0.361	37.07274011019829	32.213610478735696	28345.375960935697	18.691270983757068	3344
065904	2001	065904	APPLIED MICRO CIRCUITS CORP	2001	127.40955394236882	71.96548088945548	0.477	61.132802312343834	66.27675163002499	31764.418883155668	25.732865867450805	3344
065904	2002	065904	APPLIED MICRO CIRCUITS CORP	2002	336.404572487835	98.52841906304847	1.169	229.7687549239206	106.63581756391443	34059.6277129837	87.09260764511352	3344
065904	2003	065904	APPLIED MICRO CIRCUITS CORP	2003	124.26521403309077	217.19976857591539	1.129	295.5257010447579	-171.26048701166715	37331.59884548152	34.392780498541796	3344
065904	2004	065904	APPLIED MICRO CIRCUITS CORP	2004	85.76916257904378	229.0194526125311	0.856	256.40918216586317	-170.6400195868194	40407.10191055915	5.328691200555321	3344
065904	2005	065904	APPLIED MICRO CIRCUITS CORP	2005	114.68425700072564	162.401364661861	0.723	149.44745980538727	-34.76320280466163	43090.198546961474	14.22735402753818	3344
065904	2006	065904	APPLIED MICRO CIRCUITS CORP	2006	230.3773105276537	160.4380124360315	0.755	208.9385327014562	21.438777826197477	46689.000254203434	28.541322785927104	3344
065904	2008	065904	APPLIED MICRO CIRCUITS CORP	2008	287.96806167400877	168.3783635063006	0.619	239.206458464443	48.76160320956578	53492.76274386406	6.68872395600465	3344
065904	2009	065904	APPLIED MICRO CIRCUITS CORP	2009	246.146	152.5151608157736	0.583	229.151041	16.994958999999994	54873.0	7.021	3344
065904	2010	065904	APPLIED MICRO CIRCUITS CORP	2010	216.69937483561617	125.04074662348043	0.551	180.32166022619217	36.377714609424	58192.89052542133	7.164783102205992	3344
065904	2011	065904	APPLIED MICRO CIRCUITS CORP	2011	211.6534038851543	109.87584192160999	0.562	179.92462347769694	31.728780407457332	60953.890816253	7.282923999226456	3344
065904	2012	065904	APPLIED MICRO CIRCUITS CORP	2012	254.78539028830627	94.91390702157045	0.672	198.0546660769571	56.73072421134918	62223.95935118233	9.241249750941677	3344
065904	2013	065904	APPLIED MICRO CIRCUITS CORP	2013	236.8606249615298	92.84	0.728	211.24330002667267	25.61732493485711	62682.861773938734	12.448849344896196	3344
065904	2014	065904	APPLIED MICRO CIRCUITS CORP	2014	199.79167304923254	105.92015002714307	0.649	207.2705860727306	-7.478913023498057	64311.75515456021	8.349179389665295	3344
066032	1998	066032	POWER INTEGRATIONS INC	1998	36.41451628843243	15.831912118780096	0.178	23.9705273779863	12.44398891044613	20045.981077018307	2.309517905848181	3344
066032	1999	066032	POWER INTEGRATIONS INC	1999	61.42363877822044	19.458677584642917	0.22	38.53385273719935	22.8897860410211	23840.047218533273	7.594470046082949	3344
066032	2000	066032	POWER INTEGRATIONS INC	2000	73.58474380547032	28.260736158670547	0.237	47.13545679501138	26.44928701045894	28345.375960935697	18.378427394216928	3344
066032	2001	066032	POWER INTEGRATIONS INC	2001	69.55882135517543	46.77393620285479	0.264	50.19455623401392	19.364265121161495	31764.418883155668	8.628138430219407	3344
066032	2002	066032	POWER INTEGRATIONS INC	2002	83.5591256661775	54.811619972127446	0.269	59.95358538657604	23.605540279601456	34059.6277129837	5.021768419646138	3344
066032	2003	066032	POWER INTEGRATIONS INC	2003	102.20415464043253	57.91151570968085	0.284	66.42778649538599	35.77636814504655	37331.59884548152	41.58586914653607	3344
066032	2004	066032	POWER INTEGRATIONS INC	2004	115.35623527822568	100.01382488479263	0.31	75.33250314486646	40.02373213335922	40407.10191055915	8.823306109610733	3344
066032	2005	066032	POWER INTEGRATIONS INC	2005	125.08283718449742	107.33870967741936	0.342	83.45778232398737	41.62505486051005	43090.198546961474	3.3761258162498544	3344
066032	2006	066032	POWER INTEGRATIONS INC	2006	144.3539601263754	110.46198156682027	0.354	120.98888949413514	23.365070632240275	46689.000254203434	10.466432049165864	3344
066032	2007	066032	POWER INTEGRATIONS INC	2007	180.90165331515254	122.91359447004608	0.385	122.83083820995019	58.070815105202364	50649.58430392213	11.107279071654629	3344
066032	2008	066032	POWER INTEGRATIONS INC	2008	198.34408432976713	130.75161805878287	0.402	139.9476872246696	58.396397105097535	53492.76274386406	9.038520770614126	3344
066032	2009	066032	POWER INTEGRATIONS INC	2009	215.701	140.49875593757068	0.4	154.8018	60.89920000000001	54873.0	14.356	3344
066032	2010	066032	POWER INTEGRATIONS INC	2010	303.2785724401643	155.18934627932612	0.444	203.65433467537986	99.62423776478443	58192.89052542133	30.169274046291267	3344
066032	2011	066032	POWER INTEGRATIONS INC	2011	307.5376522303091	184.07417597534803	0.443	219.24764512708592	88.2900071032232	60953.890816253	22.455037710307483	3344
066032	2012	066032	POWER INTEGRATIONS INC	2012	314.0923444041019	198.98805843881172	0.526	221.80564681196836	92.28669759213354	62223.95935118233	15.520365854815601	3344
066032	2013	066032	POWER INTEGRATIONS INC	2013	356.0690617370073	206.82986078669532	0.562	241.2766737109912	114.79238802601613	62682.861773938734	13.102076059616325	3344
066032	2014	066032	POWER INTEGRATIONS INC	2014	356.1951737589739	212.66306993750433	0.59	238.0239167509165	118.1712570080574	64311.75515456021	21.296176638912993	3344
066393	1998	066393	MERCURY SYSTEMS INC	1998	44.495534530020336	17.97878210272873	0.378	28.63011656515113	15.86541796486921	20045.981077018307	7.481137756367115	3344
066393	1999	066393	MERCURY SYSTEMS INC	1999	62.901578869706356	25.862760834670944	0.435	39.22792681127343	23.673652058432932	23840.047218533273	22.396313364055302	3344
066393	2000	066393	MERCURY SYSTEMS INC	2000	93.0047180705401	49.099021795091815	0.49	53.877435745158195	39.1272823253819	28345.375960935697	7.522981535427269	3344
066393	2001	066393	MERCURY SYSTEMS INC	2001	133.42697044517053	57.818770941492694	0.542	82.43845971879296	50.98851072637758	31764.418883155668	8.354444695770187	3344
066393	2002	066393	MERCURY SYSTEMS INC	2002	115.94577894492934	65.36114181363834	0.593	79.01558585000389	36.93019309492545	34059.6277129837	6.442561435936264	3344
066393	2003	066393	MERCURY SYSTEMS INC	2003	146.54416846213257	64.09148335753841	0.576	97.36361965933573	49.18054880279686	37331.59884548152	6.784790623452375	3344
066393	2004	066393	MERCURY SYSTEMS INC	2004	156.69033407346743	66.72350230414746	0.652	97.5251614646213	59.165172608846134	40407.10191055915	6.072733977591948	3344
066393	2005	066393	MERCURY SYSTEMS INC	2005	218.7181437476504	71.34307380161637	0.744	140.97312665565084	77.74501709199956	43090.198546961474	12.074676939684826	3344
066393	2006	066393	MERCURY SYSTEMS INC	2006	214.36340196826086	83.63238611246501	0.836	174.7694265896793	39.593975378581554	46689.000254203434	11.836764354749967	3344
066393	2007	066393	MERCURY SYSTEMS INC	2007	211.82982027536315	95.43809640459197	0.729	186.30903452455354	25.520785750809615	50649.58430392213	8.225472693337661	3344
066393	2008	066393	MERCURY SYSTEMS INC	2008	206.4024150409062	78.19622516920707	0.67	172.33519509125233	34.067219949653875	53492.76274386406	4.595268612079844	3344
066393	2009	066393	MERCURY SYSTEMS INC	2009	188.939	79.09977033877676	0.517	143.056659	45.882341	54873.0	4.126	3344
066393	2010	066393	MERCURY SYSTEMS INC	2010	202.14660003641737	80.73297975032267	0.523	146.81439496631398	55.33220507010337	58192.89052542133	7.238809653062232	3344
066393	2011	066393	MERCURY SYSTEMS INC	2011	235.44611330155757	67.74995872998404	0.602	163.8585737963125	71.58753950524508	60953.890816253	8.533165731966736	3344
066393	2012	066393	MERCURY SYSTEMS INC	2012	251.9249560289232	67.04085727610929	0.713	165.82840685845943	86.09654917046377	62223.95935118233	8.944277351347761	3344
066393	2013	066393	MERCURY SYSTEMS INC	2013	214.19294610065862	71.34136846367063	0.756	163.53524692751185	50.65769917314676	62682.861773938734	3.641551225738634	3344
066393	2014	066393	MERCURY SYSTEMS INC	2014	213.156255425181	74.34300078492156	0.632	159.24468000367634	53.91157542150468	64311.75515456021	6.185500396920634	3344
066403	1998	066403	ARTISAN COMPONENTS INC	1998	8.617810905421504	6.561818137242883	0.086	4.855396794848456	3.7624141105730473	20045.981077018307	3.693339473155987	3344
066403	1999	066403	ARTISAN COMPONENTS INC	1999	9.006344990408735	10.077690636621378	0.097	7.32304736609119	1.6832976243175455	23840.047218533273	3.5622119815668203	3344
066403	2000	066403	ARTISAN COMPONENTS INC	2000	14.467649872975025	13.49416118025854	0.108	10.495068791448086	3.97258108152694	28345.375960935697	1.5517495437697653	3344
066403	2001	066403	ARTISAN COMPONENTS INC	2001	20.515398376628177	14.902058021324077	0.163	15.365149991868353	5.150248384759822	31764.418883155668	2.1069893689210586	3344
066403	2002	066403	ARTISAN COMPONENTS INC	2002	31.696918204989572	16.317972350230413	0.181	19.938551788059012	11.75836641693056	34059.6277129837	1.6457147947310404	3344
066403	2003	066403	ARTISAN COMPONENTS INC	2003	58.689377616976294	17.23133423256974	0.343	34.27603723728607	24.413340379690233	37331.59884548152	4.986518461453805	3344
066403	2004	066403	ARTISAN COMPONENTS INC	2004	78.30337619357181	23.980999773806833	0.347	40.13966837488497	38.16370781868683	40407.10191055915	1.3080402173559367	3344
066450	1998	066450	ASTROPOWER INC	1998	12.046105912521522	9.777329212136504	0.276	5.5370974705206155	6.509008442000906	20045.981077018307	6.464524813148667	3344
066450	1999	066450	ASTROPOWER INC	1999	20.447985834440015	16.723562385841152	0.35	9.98739855393242	10.460587280507596	23840.047218533273	4.144009216589862	3344
066450	2000	066450	ASTROPOWER INC	2000	32.85294796925006	21.01725521669342	0.425	17.718631429608365	15.134316539641691	28345.375960935697	7.767815648980425	3344
066450	2001	066450	ASTROPOWER INC	2001	51.34098200688971	28.98241221448998	0.682	23.609224241169763	27.731757765719948	31764.418883155668	16.980321194299933	3344
066519	2000	066519	GENESIS MICROCHIP INC	2000	19.574383846382265	5.0578690918909635	0.131	11.93623280213798	7.638151044244284	28345.375960935697	1.6492297926844475	3344
066519	2001	066519	GENESIS MICROCHIP INC	2001	39.425166698700416	6.684607621702148	0.165	25.372292532193914	14.0528741665065	31764.418883155668	12.666817462112643	3344
066519	2002	066519	GENESIS MICROCHIP INC	2002	49.144203290337536	21.22961755989279	0.173	42.18214180891327	6.962061481424264	34059.6277129837	6.205391441837679	3344
066519	2003	066519	GENESIS MICROCHIP INC	2003	132.82653766413267	20.935483870967744	0.408	89.88680190251637	42.93973576161631	37331.59884548152	3.8727782974742753	3344
066519	2004	066519	GENESIS MICROCHIP INC	2004	164.06071914020615	26.159239990952273	0.393	142.99190946161573	21.068809678590405	40407.10191055915	7.103113916636841	3344
066519	2005	066519	GENESIS MICROCHIP INC	2005	186.58693314449076	31.656070104332528	0.431	149.38783801505494	37.19909512943584	43090.198546961474	9.966450411167674	3344
066519	2006	066519	GENESIS MICROCHIP INC	2006	185.30976504339617	40.36317614042811	0.476	152.4246904165305	32.885074626865666	46689.000254203434	4.891671078721439	3344
066519	2007	066519	GENESIS MICROCHIP INC	2007	255.19951517906176	43.227110607808484	0.563	189.6707507149215	65.52876446414028	50649.58430392213	8.720482025480807	3344
066519	2008	066519	GENESIS MICROCHIP INC	2008	211.03779893014473	47.00239808153478	0.595	201.91846286972935	9.119336060415355	53492.76274386406	7.404095502101404	3344
066667	1999	066667	INTEGRATED SENSOR SOLUTIONS	1999	8.986277113767153	5.056641751659978	0.116	6.392589051202597	2.5936880625645564	23840.047218533273	1.1900921658986174	3344
066667	2000	066667	INTEGRATED SENSOR SOLUTIONS	2000	15.448216701309843	6.205432207862342	0.166	12.667065228150056	2.7811514731597877	28345.375960935697	8.333427790938872	3344
066708	1998	066708	BROADCOM CORP	1998	105.63944385783317	16.097477261026256	0.411	66.33002918029888	39.3094146775343	20045.981077018307	32.2824790714699	3344
066708	1999	066708	BROADCOM CORP	1999	305.8480153460233	46.59282041424383	1.147	185.71434144901875	120.13367389700457	23840.047218533273	33.69124423963134	3344
066708	2000	066708	BROADCOM CORP	2000	723.3231053482465	86.58633283675333	2.706	534.8306206077403	188.49248474050611	28345.375960935697	91.43420649943893	3344
066708	2001	066708	BROADCOM CORP	2001	711.0168990345521	207.17281105990781	2.728	1086.4146606147522	-375.3977615802001	31764.418883155668	80.72042524315766	3344
066708	2002	066708	BROADCOM CORP	2002	836.4470533714375	293.80093626378607	2.508	1047.286416930563	-210.83936355912564	34059.6277129837	83.71321359774633	3344
066708	2003	066708	BROADCOM CORP	2003	1309.0735395747795	358.6299814049817	2.729	1231.8738452782634	77.19969429651604	37331.59884548152	52.7507841303032	3344
066708	2010	066708	BROADCOM CORP	2010	6897.362777429341	394.2901045552228	8.95	5070.603415137477	1826.759362291864	58192.89052542133	107.51024033953512	3344
066708	2011	066708	BROADCOM CORP	2011	7606.625557191242	666.3884666209624	9.59	5700.2605544631915	1906.3650027280498	60953.890816253	157.6097466640882	3344
066708	2012	066708	BROADCOM CORP	2012	8234.676979727019	794.8572734408378	11.3	6196.471205373214	2038.205774353805	62223.95935118233	231.50564057800506	3344
066708	2013	066708	BROADCOM CORP	2013	8519.871150413426	1024.5274638503677	12.55	6328.781776400829	2191.089374012598	62682.861773938734	213.988061718662	3344
066708	2014	066708	BROADCOM CORP	2014	8606.762456215598	1260.8779733127055	10.65	6256.247868222991	2350.5145879926067	64311.75515456021	241.8446655712888	3344
110039	2000	110039	AMKOR TECHNOLOGY INC	2000	1575.3037051700815	1625.9091522761025	22.715	545.1664258141145	1030.137279355967	28345.375960935697	544.1596862496175	3344
110039	2001	110039	AMKOR TECHNOLOGY INC	2001	1122.0648461640817	2622.724542265366	21.6	297.35026686576884	824.714579298313	31764.418883155668	179.48427957475684	3344
110039	2002	110039	AMKOR TECHNOLOGY INC	2002	1086.103344404109	2865.363135087906	20.276	239.38304472078488	846.7202996833242	34059.6277129837	105.89584562794376	3344
110039	2003	110039	AMKOR TECHNOLOGY INC	2003	1303.9294280255294	2605.5956221198157	20.261	269.7133411927314	1034.2160868327978	37331.59884548152	253.67743355527432	3344
110039	2004	110039	AMKOR TECHNOLOGY INC	2004	1605.172777698042	2832.0979262672813	22.033	428.01471290957113	1177.158064788471	40407.10191055915	442.2390698380677	3344
110039	2005	110039	AMKOR TECHNOLOGY INC	2005	1835.9246728040498	3527.1769803879897	24.0	509.2795132058648	1326.6451595981848	43090.198546961474	313.21028289605977	3344
110039	2006	110039	AMKOR TECHNOLOGY INC	2006	2477.176162980717	3528.297498022269	22.7	813.3049170207356	1663.871245959981	46689.000254203434	327.91740633467253	3344
110039	2007	110039	AMKOR TECHNOLOGY INC	2007	2594.0240137870956	3547.486483116648	21.6	865.520519667443	1728.5034941196527	50649.58430392213	239.63320619978902	3344
110039	2008	110039	AMKOR TECHNOLOGY INC	2008	2614.264081183134	3772.58651888713	20.5	951.7847309628695	1662.4793502202642	53492.76274386406	383.75609804564465	3344
110039	2009	110039	AMKOR TECHNOLOGY INC	2009	2179.109	3947.843757307174	18.2	630.9974	1548.1116	54873.0	173.496	3344
110039	2010	110039	AMKOR TECHNOLOGY INC	2010	2973.5599975721775	3983.292320368783	19.9	1105.036316183463	1868.5236813887145	58192.89052542133	439.88451858066423	3344
110039	2011	110039	AMKOR TECHNOLOGY INC	2011	2858.130102224647	4359.832718868652	18.3	1189.2926630910347	1668.8374391336126	60953.890816253	451.26087797331274	3344
110039	2012	110039	AMKOR TECHNOLOGY INC	2012	2838.367464488855	4607.007668195967	18.9	1061.2608127706405	1777.1066517182148	62223.95935118233	506.1927758854616	3344
110039	2013	110039	AMKOR TECHNOLOGY INC	2013	3032.9407661215864	4988.1809997939245	20.9	1042.7554935472617	1990.1852725743245	62682.861773938734	531.4562450726432	3344
110039	2014	110039	AMKOR TECHNOLOGY INC	2014	3195.8171216159635	5150.483249763825	21.9	1005.8010886104387	2190.016033005525	64311.75515456021	628.7222847859398	3344
110760	1998	110760	AXT INC	1998	22.51720389278711	20.04539526484751	0.314	9.739642034194526	12.777561858592584	20045.981077018307	19.34634503441843	3344
110760	1999	110760	AXT INC	1999	48.116275638187986	39.690848022751226	0.888	19.116890659583888	28.999384978604102	23840.047218533273	8.671658986175116	3344
110760	2000	110760	AXT INC	2000	80.17618529149757	68.39230703143218	1.359	21.69045234088885	58.485732950608735	28345.375960935697	29.785883499767635	3344
110760	2001	110760	AXT INC	2001	88.36139982553928	97.27641885722524	1.308	34.60868163874802	53.75271818679126	31764.418883155668	29.21737163537661	3344
110760	2002	110760	AXT INC	2002	48.79508766509616	121.79723502304148	1.306	23.21797945469993	25.577108210396233	34059.6277129837	15.853644957632309	3344
110760	2008	110760	AXT INC	2008	71.85631686595343	45.60943643512451	1.12	9.05443675267463	62.8018801132788	53492.76274386406	6.744363965145509	3344
110760	2012	110760	AXT INC	2012	90.89824424261748	73.6485207495908	1.284	0.8281332606482051	90.07011098196928	62223.95935118233	6.716509957588925	3344
110760	2013	110760	AXT INC	2013	87.5428301770656	80.28063610851264	1.255	11.124551180779244	76.41827899628635	62682.861773938734	5.090663362991329	3344
110760	2014	110760	AXT INC	2014	85.27005912809042	85.14734433128342	1.095	10.46565158338694	74.8044075447035	64311.75515456021	1.8193734192404971	3344
111939	2002	111939	COMMUNICATIONS & PWR INDS	2002	194.05653819417626	121.93281753087606	1.48	122.9670502819186	71.08948791225767	34059.6277129837	3.7613156810564647	3344
111939	2003	111939	COMMUNICATIONS & PWR INDS	2003	215.80877271433798	119.93368254120814	1.49	123.34823366803529	92.4605390463027	37331.59884548152	3.3753370384636554	3344
112874	1999	112874	CARRIER ACCESS CORP	1999	64.22605872805076	4.228187095744811	0.349	35.76835827062122	28.457700457429535	23840.047218533273	6.1094470046082945	3344
112874	2000	112874	CARRIER ACCESS CORP	2000	97.69375433039693	10.50506992166851	0.46	66.7248935959616	30.968860734435314	28345.375960935697	10.765900048740125	3344
112874	2001	112874	CARRIER ACCESS CORP	2001	74.44593935272114	22.190735952203845	0.362	73.82440232417169	0.6215370285494627	31764.418883155668	5.666138882605745	3344
112874	2002	112874	CARRIER ACCESS CORP	2002	38.80976287943153	26.9827595978373	0.226	57.93857882134857	-19.128815941917043	34059.6277129837	1.8383458228017238	3344
112874	2003	112874	CARRIER ACCESS CORP	2003	50.86060408959713	23.985523637186155	0.238	37.03401926907597	13.826584820521159	37331.59884548152	0.8474109943322512	3344
112874	2004	112874	CARRIER ACCESS CORP	2004	80.6208684052783	25.50327980095001	0.261	68.11171156719882	12.509156838079479	40407.10191055915	10.07060814108613	3344
112874	2005	112874	CARRIER ACCESS CORP	2005	66.11937297278394	34.86089120108573	0.249	60.205398623897324	5.913974348886621	43090.198546961474	1.8457565591033687	3344
112874	2006	112874	CARRIER ACCESS CORP	2006	68.46787958020118	34.20493101108347	0.304	69.77810945273632	-1.3102298725351311	46689.000254203434	1.6122167201303892	3344
113425	1999	113425	TERAYON COMMUN SYSTEMS INC	1999	57.257783680094434	10.033506388305904	0.248	78.66019300575476	-21.40240932566033	23840.047218533273	5.435483870967742	3344
113425	2000	113425	TERAYON COMMUN SYSTEMS INC	2000	224.0582005344947	18.937719256091114	0.817	214.33036259856806	9.727837935926622	28345.375960935697	43.677952461376286	3344
113425	2001	113425	TERAYON COMMUN SYSTEMS INC	2001	206.60363410559307	62.69930875576037	0.618	261.88710173425784	-55.28346762866477	31764.418883155668	10.262384076000904	3344
113425	2002	113425	TERAYON COMMUN SYSTEMS INC	2002	99.94825055997528	71.97329494576245	0.487	147.84642079246157	-47.89817023248631	34059.6277129837	8.001425246912893	3344
113425	2003	113425	TERAYON COMMUN SYSTEMS INC	2003	108.52880198382049	69.88767101549483	0.423	133.33024269279238	-24.801440708971892	37331.59884548152	4.216144830242668	3344
113425	2004	113425	TERAYON COMMUN SYSTEMS INC	2004	127.09313026079174	58.98688550604718	0.255	133.07170717704966	-5.978576916257905	40407.10191055915	2.926279026887493	3344
113425	2005	113425	TERAYON COMMUN SYSTEMS INC	2005	79.26491287888723	55.38594470046083	0.156	92.09416598910659	-12.829253110219355	43090.198546961474	1.9166657847111241	3344
113425	2006	113425	TERAYON COMMUN SYSTEMS INC	2006	69.38845916403385	32.644009216589865	0.114	74.93946508334241	-5.551005919308568	46689.000254203434	2.642042210387534	3344
114370	2001	114370	IXYS CORP	2001	56.64577080591983	33.743264970482464	0.349	34.78851737954078	21.85725342637905	31764.418883155668	2.0074643745758878	3344
114370	2002	114370	IXYS CORP	2002	86.03460261064339	33.489205542668486	0.461	51.33411832857033	34.70048428207306	34059.6277129837	4.745626830273135	3344
114370	2003	114370	IXYS CORP	2003	67.336883613155	40.38156566870104	0.626	33.29532420017073	34.04155941298426	37331.59884548152	8.256204259065647	3344
114370	2004	114370	IXYS CORP	2004	114.91299906287198	52.169600793454	0.776	85.69306440855402	29.21993465431796	40407.10191055915	5.955596047679475	3344
114370	2005	114370	IXYS CORP	2005	163.87511911943417	72.53225806451613	0.86	118.80747676624614	45.067642353188035	43090.198546961474	5.186956935874776	3344
114370	2006	114370	IXYS CORP	2006	232.97744852380433	85.15041845736259	0.858	159.991678468969	72.98577005483531	46689.000254203434	6.17895294154287	3344
114370	2007	114370	IXYS CORP	2007	238.1370376683143	89.88297386676169	0.965	156.73930931954624	81.39772834876806	50649.58430392213	21.424369065974194	3344
114370	2008	114370	IXYS CORP	2008	281.1398678414097	107.6339787771827	1.018	196.60340623033355	84.53646161107615	53492.76274386406	9.417071547090325	3344
114370	2009	114370	IXYS CORP	2009	304.456	130.59492923871773	1.049	210.11922300000003	94.33677699999998	54873.0	7.236	3344
114370	2010	114370	IXYS CORP	2010	276.72324842697316	161.03397209633778	0.943	202.86885912557918	73.85438930139397	58192.89052542133	8.661106450180132	3344
114370	2011	114370	IXYS CORP	2011	250.38758891897177	150.5623705246261	1.157	158.53470799575865	91.85288092321312	60953.890816253	4.971959002127249	3344
114370	2012	114370	IXYS CORP	2012	373.64923937751354	153.04433414120462	1.244	231.24566820608294	142.40357117143063	62223.95935118233	8.401567407041947	3344
114370	2013	114370	IXYS CORP	2013	377.5251851699871	168.5685218059319	1.173	243.1875438560496	134.3376413139375	62682.861773938734	11.114239591545594	3344
114370	2014	114370	IXYS CORP	2014	285.9532489813425	176.72615154629545	1.01	192.58932018014156	93.36392880120093	64311.75515456021	6.638728377056141	3344
114611	1998	114611	VIASYSTEMS INC	1998	536.7552131826293	613.6455686880961	9.3	277.6821688088093	259.0730443738199	20045.981077018307	153.92181171997686	3344
114611	1999	114611	VIASYSTEMS INC	1999	650.6265309133835	862.9799605939737	18.5	207.66976538291274	442.95676553047076	23840.047218533273	146.14746543778801	3344
114698	2001	114698	EMAGIN CORP	2001	4.322338365096027	2.067488070004421	0.034	15.46716590032083	-11.144827535224803	31764.418883155668	0.5258991178466411	3344
114698	2002	114698	EMAGIN CORP	2002	1.643624005561134	2.5899117846641033	0.018	9.344445817563914	-7.70082181200278	34059.6277129837	0.0946453028092953	3344
114698	2003	114698	EMAGIN CORP	2003	2.096020163421277	2.484160830206327	0.047	6.366883206634415	-4.270863043213138	37331.59884548152	1.23259780993782	3344
114698	2004	114698	EMAGIN CORP	2004	3.033424231934958	3.7312518789876297	0.072	6.100625596258243	-3.0672013643232843	40407.10191055915	0.7820041432119654	3344
114698	2005	114698	EMAGIN CORP	2005	3.274145181454962	4.605292920153811	0.098	12.953964382196343	-9.67981920074138	43090.198546961474	0.950395292474097	3344
114698	2006	114698	EMAGIN CORP	2006	7.416385227148927	5.620900248812486	0.067	18.464603079493042	-11.048217852344116	46689.000254203434	0.2117786290448161	3344
114698	2007	114698	EMAGIN CORP	2007	16.622161619604945	5.851617281158109	0.065	16.949051190273277	-0.32688957066833285	50649.58430392213	0.01622981416862777	3344
114698	2008	114698	EMAGIN CORP	2008	18.42648678414097	5.880552690341521	0.059	15.31564663310258	3.1108401510383894	53492.76274386406	0.30602005027472257	3344
114698	2009	114698	EMAGIN CORP	2009	23.822	6.892054574638845	0.064	15.477127999999997	8.344872000000002	54873.0	0.718	3344
114698	2014	114698	EMAGIN CORP	2014	26.260429112670156	19.39248326754762	0.084	25.014568589606117	1.2458605230640403	64311.75515456021	1.3652223678623518	3344
116431	1999	116431	E-TEK DYNAMICS INC	1999	101.91176036594362	50.798384820256025	1.316	35.217024642172035	66.69473572377159	23840.047218533273	48.14746543778802	3344
116526	2000	116526	CONEXANT SYSTEMS INC	2000	1388.101883928866	1710.0198582951284	8.8	933.8204493714741	454.2814345573921	28345.375960935697	357.18350090112557	3344
116526	2001	116526	CONEXANT SYSTEMS INC	2001	785.4857548383281	2301.337800851774	6.9	985.7658530094474	-200.2800981711193	31764.418883155668	179.16082334313504	3344
116526	2002	116526	CONEXANT SYSTEMS INC	2002	464.78875415154084	1443.1806642815816	2.46	522.7986251641307	-58.009871012589855	34059.6277129837	23.637942745159172	3344
116526	2003	116526	CONEXANT SYSTEMS INC	2003	487.8060083743241	329.5501173163461	1.45	412.6466929549981	75.15931541932599	37331.59884548152	21.838991911076874	3344
116526	2004	116526	CONEXANT SYSTEMS INC	2004	761.3987690697104	194.3155412987543	2.4	638.8887857016217	122.50998336808871	40407.10191055915	19.04901354678467	3344
116526	2005	116526	CONEXANT SYSTEMS INC	2005	631.8698035512891	235.27424821191755	2.4	649.537248319214	-17.66744476792477	43090.198546961474	23.06243186893435	3344
116526	2006	116526	CONEXANT SYSTEMS INC	2006	881.3478229291499	245.93473357287783	3.12	692.8394160583941	188.5084068707557	46689.000254203434	34.76076281831678	3344
116526	2007	116526	CONEXANT SYSTEMS INC	2007	765.9309130163059	224.100588785561	2.89	621.7239456091511	144.20696740715488	50649.58430392213	30.7575265763207	3344
116526	2008	116526	CONEXANT SYSTEMS INC	2008	479.82221522970417	224.6629572988861	1.279	348.8518722466961	130.9703429830081	53492.76274386406	5.91969954395064	3344
116526	2009	116526	CONEXANT SYSTEMS INC	2009	208.427	132.07848698762794	0.605	154.93883499999998	53.48816500000001	54873.0	0.686	3344
116526	2010	116526	CONEXANT SYSTEMS INC	2010	243.51670139802133	88.69579660946567	0.596	162.31665284156432	81.200048556457	58192.89052542133	2.014509203967823	3344
116770	1999	116770	HI/FN INC	1999	24.99690128375387	2.9999038877408815	0.096	13.51539855393242	11.481502729821454	23840.047218533273	1.9700460829493087	3344
116770	2000	116770	HI/FN INC	2000	29.587251311491638	4.025126043474668	0.134	21.542707446633013	8.044543864858625	28345.375960935697	2.028949366945128	3344
116770	2001	116770	HI/FN INC	2001	31.790292295637002	6.039170506912442	0.136	39.2826529857918	-7.492360690154796	31764.418883155668	2.8466410314408503	3344
116770	2002	116770	HI/FN INC	2002	16.830926083262533	8.938940092165899	0.132	34.80126361319225	-17.97033752992971	34059.6277129837	0.3741273146343908	3344
116770	2003	116770	HI/FN INC	2003	16.651083377373062	9.175611801911067	0.117	25.256171389080855	-8.605088011707792	37331.59884548152	1.194079128377263	3344
116770	2004	116770	HI/FN INC	2004	35.57878207130615	9.660710246550554	0.146	32.0010587013601	3.577723369946048	40407.10191055915	1.0097723402639942	3344
116770	2005	116770	HI/FN INC	2005	40.56093232267597	10.10143749512855	0.198	33.27753210760528	7.283400215070687	43090.198546961474	1.227682114999947	3344
116770	2006	116770	HI/FN INC	2006	39.73199694955878	11.222142739228525	0.176	36.19752333224389	3.534473617314886	46689.000254203434	1.692152771289462	3344
116770	2007	116770	HI/FN INC	2007	40.68613525746643	11.593401229948265	0.155	35.67430354335928	5.011831714107151	50649.58430392213	0.5903594903838351	3344
116770	2008	116770	HI/FN INC	2008	38.7606198867212	12.185109778242447	0.166	37.26557583385777	1.495044052863438	53492.76274386406	0.9756873031486284	3344
117768	2001	117768	NVIDIA CORP	2001	276.84920975205875	21.951046721688925	0.392	217.51641261439744	59.33279713766132	31764.418883155668	13.106763175752093	3344
117768	2002	117768	NVIDIA CORP	2002	567.9029891094463	47.615207373271886	0.796	428.04108133158263	139.8619077778636	34059.6277129837	40.45140242069281	3344
117768	2003	117768	NVIDIA CORP	2003	1113.4363185495345	86.4230416104644	1.123	828.4624025366884	284.9739160128461	37331.59884548152	106.7143564628845	3344
117768	2004	117768	NVIDIA CORP	2004	1577.9901559347218	192.90771318706174	1.513	1362.4923442552365	215.49781167948527	40407.10191055915	68.46386620245339	3344
117768	2005	117768	NVIDIA CORP	2005	1593.7480875320202	255.0779988642564	1.825	1367.2194026980005	226.52868483401963	43090.198546961474	135.04926603659763	3344
117768	2006	117768	NVIDIA CORP	2006	1824.8474779387732	371.84284377923296	2.011	1545.2121718052074	279.63530613356585	46689.000254203434	69.82569788325183	3344
117768	2007	117768	NVIDIA CORP	2007	2249.575781679071	429.31268235013397	2.737	1690.4016883510405	559.1740933280306	50649.58430392213	80.74332548892315	3344
117768	2008	117768	NVIDIA CORP	2008	3017.5926290119573	487.2638564035264	4.083	2216.3131293266206	801.2794996853368	53492.76274386406	144.32223513865293	3344
117768	2009	117768	NVIDIA CORP	2009	4097.86	602.7263009726206	4.985	2848.4720949999996	1249.387905	54873.0	187.745	3344
117768	2010	117768	NVIDIA CORP	2010	3464.56289072774	782.2500441205477	5.42	2811.667792906711	652.8950978210288	58192.89052542133	402.3787198341806	3344
117768	2011	117768	NVIDIA CORP	2011	3424.4175871689026	1023.2421082528605	5.706	2734.9300898712154	689.487497297687	60953.890816253	75.03480951460065	3344
117768	2012	117768	NVIDIA CORP	2012	3644.5172438620493	1081.4857869583793	6.029	2673.178791026815	971.3384528352344	62223.95935118233	92.87740637779063	3344
117768	2013	117768	NVIDIA CORP	2013	4101.366462176081	1193.939	7.133	2751.3935800898666	1349.972882086214	62682.861773938734	130.2089199234148	3344
117768	2014	117768	NVIDIA CORP	2014	4370.943496420657	1141.5170507822138	7.974	2925.1385027011015	1445.804993719555	64311.75515456021	169.20726641682205	3344
119493	1999	119493	PLX TECHNOLOGY INC	1999	24.021838571639368	3.72620494127177	0.085	15.545973144459198	8.475865427180167	23840.047218533273	1.1002304147465438	3344
119493	2000	119493	PLX TECHNOLOGY INC	2000	43.1231647365469	4.796001730020664	0.126	29.462234979709	13.660929756837902	28345.375960935697	34.24503814198112	3344
119493	2001	119493	PLX TECHNOLOGY INC	2001	32.62119845646613	42.52535628682418	0.116	30.652302733710837	1.9688957227552966	31764.418883155668	5.6005428636055195	3344
119493	2002	119493	PLX TECHNOLOGY INC	2002	26.886537421796557	47.08410138248848	0.098	23.803579207538426	3.0829582142581304	34059.6277129837	0.8729637341469119	3344
119493	2003	119493	PLX TECHNOLOGY INC	2003	30.926460425220533	47.08862768212371	0.114	25.57793081019553	5.348529615025002	37331.59884548152	1.5858691465360701	3344
119493	2004	119493	PLX TECHNOLOGY INC	2004	45.96908321865475	48.72198859707786	0.136	36.92191781978437	9.04716539887038	40407.10191055915	2.081367476870682	3344
119493	2005	119493	PLX TECHNOLOGY INC	2005	47.748314842500065	49.68219859760236	0.142	39.8626048032453	7.8857100392547705	43090.198546961474	0.7831765216378973	3344
119493	2006	119493	PLX TECHNOLOGY INC	2006	73.92326687729236	47.10441047111092	0.15	61.865807822202854	12.05745905508951	46689.000254203434	1.2332990750256938	3344
119493	2007	119493	PLX TECHNOLOGY INC	2007	77.39522375622597	47.78517581026799	0.157	66.91970816052117	10.475515595704795	50649.58430392213	3.1323541345451593	3344
119493	2008	119493	PLX TECHNOLOGY INC	2008	79.71601636249213	50.6311561107137	0.158	71.20221050975455	8.513805852737578	53492.76274386406	1.76458314703866	3344
119493	2009	119493	PLX TECHNOLOGY INC	2009	82.832	26.04366641720626	0.197	78.99601899999999	3.835981000000004	54873.0	1.182	3344
119493	2010	119493	PLX TECHNOLOGY INC	2010	117.91126307483765	22.63909320858954	0.26	93.60394116575961	24.30732190907804	58192.89052542133	3.346000098702068	3344
119493	2011	119493	PLX TECHNOLOGY INC	2011	119.19929173658366	28.732857258784385	0.205	113.88108792554999	5.318203811033672	60953.890816253	2.8582479210984335	3344
119493	2012	119493	PLX TECHNOLOGY INC	2012	103.11140368019913	28.271	0.156	88.1310224946772	14.980381185521939	62223.95935118233	2.4298604324601265	3344
119493	2013	119493	PLX TECHNOLOGY INC	2013	107.1934180020107	28.503	0.157	85.75164242187981	21.441775580130905	62682.861773938734	0.9892255133836394	3344
119553	1998	119553	HEARTLAND TECHNOLOGY INC	1998	14.391452929213068	6.886606036059256	0.225	10.074082068940408	4.3173708602726615	20045.981077018307	1.649486970587888	3344
119553	1999	119553	HEARTLAND TECHNOLOGY INC	1999	20.75136491072746	13.428084002114469	0.3	15.182352073188728	5.569012837538732	23840.047218533273	0.7857142857142858	3344
119553	2000	119553	HEARTLAND TECHNOLOGY INC	2000	14.925599656867597	13.955108450521296	0.093	13.03513279883863	1.8904668580289683	28345.375960935697	0.5531437380274985	3344
119553	2001	119553	HEARTLAND TECHNOLOGY INC	2001	5.2182976773068	10.895823739860438	0.065	4.5463392817540695	0.6719583955527303	31764.418883155668	0.5123275277086632	3344
121613	1999	121613	GLOBESPANVIRATA INC	1999	33.18282425852147	11.043298572732953	0.214	29.457474398701493	3.725349859819977	23840.047218533273	1.415898617511521	3344
121613	2000	121613	GLOBESPANVIRATA INC	2000	229.69942921244515	13.710696279503619	0.776	176.6096829324623	53.08974627998285	28345.375960935697	21.425251918433972	3344
121613	2001	121613	GLOBESPANVIRATA INC	2001	199.54758490175493	46.84331797235023	1.155	169.04712287653206	30.500462025222884	31764.418883155668	9.739877855688759	3344
121613	2002	121613	GLOBESPANVIRATA INC	2002	176.77299760562292	70.5473629325686	0.7	208.8237429520352	-32.05074534641226	34059.6277129837	7.99363092785801	3344
122838	2002	122838	NETSILICON INC	2002	28.873098014984166	6.345304975922953	0.148	23.523321232718004	5.349776782266161	34059.6277129837	2.0588137046398467	3344
124355	2000	124355	ALTIGEN COMMUNICATIONS INC	2000	8.188986769606387	1.8213273102984286	0.108	12.00749084430367	-3.8185040746972825	28345.375960935697	0.48626775330696076	3344
124355	2001	124355	ALTIGEN COMMUNICATIONS INC	2001	7.120363114863166	2.2977105545912884	0.112	14.855383887517187	-7.735020772654021	31764.418883155668	1.0325718163311468	3344
124355	2002	124355	ALTIGEN COMMUNICATIONS INC	2002	7.643469529620762	3.292626728110599	0.107	9.074396385262995	-1.4309268556422332	34059.6277129837	0.10800699261766639	3344
124355	2003	124355	ALTIGEN COMMUNICATIONS INC	2003	9.613398918655228	3.404377880184332	0.087	9.099807309240212	0.5135916094150162	37331.59884548152	0.08474109943322512	3344
124355	2004	124355	ALTIGEN COMMUNICATIONS INC	2004	12.530498872913622	3.21889400921659	0.096	8.532376505947807	3.998122366965816	40407.10191055915	0.13774552869336978	3344
124355	2005	124355	ALTIGEN COMMUNICATIONS INC	2005	13.499619692081728	2.2457582090609614	0.091	9.951725373969452	3.547894318112275	43090.198546961474	0.5069480457629092	3344
124355	2006	124355	ALTIGEN COMMUNICATIONS INC	2006	16.247230998293205	2.8500330971585477	0.088	12.245727566546826	4.00150343174638	46689.000254203434	0.3924133420536298	3344
124355	2007	124355	ALTIGEN COMMUNICATIONS INC	2007	16.93843152851164	3.313393316825614	0.109	12.492376380129919	4.44605514838172	50649.58430392213	0.07303416375882495	3344
124355	2008	124355	ALTIGEN COMMUNICATIONS INC	2008	18.581851793580867	3.4016524062860083	0.121	16.029735682819382	2.552116110761483	53492.76274386406	0.1808300297077906	3344
124355	2009	124355	ALTIGEN COMMUNICATIONS INC	2009	17.385	3.4066820276497696	0.115	15.658605000000001	1.7263950000000001	54873.0	0.328	3344
124355	2010	124355	ALTIGEN COMMUNICATIONS INC	2010	16.83796305662897	3.847926267281106	0.112	11.931826734375948	4.90613632225302	58192.89052542133	0.29610620342496174	3344
124355	2011	124355	ALTIGEN COMMUNICATIONS INC	2011	18.19248705463305	4.231754690470287	0.115	13.748185589721945	4.444301464911106	60953.890816253	0.43415200154708955	3344
124355	2012	124355	ALTIGEN COMMUNICATIONS INC	2012	17.42488917231519	4.761904761904763	0.103	12.536037768840707	4.888851403474485	62223.95935118233	0.023719840223156256	3344
124355	2013	124355	ALTIGEN COMMUNICATIONS INC	2013	13.388662057079546	4.594165985871498	0.093	8.741986909866842	4.646675147212705	62682.861773938734	0.005631264782070053	3344
124355	2014	124355	ALTIGEN COMMUNICATIONS INC	2014	9.779112159553936	4.522215531389843	0.04	7.685589698028042	2.0935224615258936	64311.75515456021	0.1375376151531375	3344
124440	2000	124440	VIXEL CORP	2000	21.9136230162658	14.41804027103657	0.196	30.204641525619458	-8.291018509353659	28345.375960935697	3.5489611552542986	3344
124440	2001	124440	VIXEL CORP	2001	16.117657495157975	18.693398509912274	0.152	24.82865295622219	-8.710995461064213	31764.418883155668	1.2044786247455326	3344
124440	2002	124440	VIXEL CORP	2002	15.915656136556732	16.92972350230415	0.097	20.711818181818185	-4.79616204526145	34059.6277129837	1.1980981861506086	3344
124599	2000	124599	SILICON IMAGE INC	2000	33.016595730641065	4.075996907102618	0.15	37.35893628955096	-4.342340558909897	28345.375960935697	2.4494746267980005	3344
124599	2001	124599	SILICON IMAGE INC	2001	38.41536437157177	8.207289858666005	0.266	51.233234767952446	-12.817870396380675	31764.418883155668	2.0232978964035286	3344
124599	2002	124599	SILICON IMAGE INC	2002	62.97906851007956	15.738526234655362	0.249	70.90665559589094	-7.927587085811384	34059.6277129837	4.123194780033182	3344
124599	2003	124599	SILICON IMAGE INC	2003	84.17008821496809	14.989821307396516	0.25	79.2389934550185	4.931094759949589	37331.59884548152	5.608320035217081	3344
124599	2004	124599	SILICON IMAGE INC	2004	146.1911234560605	25.22352993575254	0.337	128.11033035872583	18.08079309733467	40407.10191055915	6.467532185815465	3344
124599	2005	124599	SILICON IMAGE INC	2005	185.69430237539453	33.002260352525916	0.384	117.95210043626128	67.74220193913324	43090.198546961474	6.528940489167821	3344
124599	2006	124599	SILICON IMAGE INC	2006	267.7833460435051	39.560623100134734	0.442	202.07199949159315	65.71134655191199	46689.000254203434	13.992961474975862	3344
124599	2007	124599	SILICON IMAGE INC	2007	303.4893850728178	57.16130900021156	0.635	232.32343332765183	71.165951745166	50649.58430392213	13.580297005599284	3344
124599	2008	124599	SILICON IMAGE INC	2008	269.83853838892384	68.45209926814505	0.61	222.94977186910006	46.88876651982378	53492.76274386406	7.000705435830179	3344
124599	2009	124599	SILICON IMAGE INC	2009	150.589	55.044609311333836	0.526	153.17680199999998	-2.587801999999982	54873.0	4.124	3344
124599	2010	124599	SILICON IMAGE INC	2010	193.56525785501853	53.181351023077646	0.432	148.9537782993101	44.61147955570843	58192.89052542133	4.605438483936239	3344
124599	2011	124599	SILICON IMAGE INC	2011	227.51829852067655	55.16108090562363	0.521	179.5000875034744	48.01821101720215	60953.890816253	7.562367046992844	3344
124599	2012	124599	SILICON IMAGE INC	2012	259.57232342141265	59.061322370674894	0.623	203.11448114129374	56.457842280118896	62223.95935118233	8.430031215309732	3344
124599	2013	124599	SILICON IMAGE INC	2013	283.5573154968301	63.88862935625526	0.64	215.09337491536553	68.46394058146454	62682.861773938734	5.406952734917596	3344
124599	2014	124599	SILICON IMAGE INC	2014	263.52542303646743	56.65643287927112	0.671	188.85563555038144	74.66978748608601	64311.75515456021	7.143648346779404	3344
125604	2000	125604	PLUG POWER INC	2000	5.528390906991323	29.64825900605717	0.537	43.69964564980699	-38.17125474281566	28345.375960935697	13.596227741065254	3344
125604	2001	125604	PLUG POWER INC	2001	4.244718127652025	42.74769585253456	0.366	41.06431834646718	-36.819600218815154	31764.418883155668	3.029857498303551	3344
125604	2002	125604	PLUG POWER INC	2002	9.12798331659844	44.847715448352474	0.348	26.665825287711435	-17.537841971112996	34059.6277129837	1.4118852230845462	3344
125604	2003	125604	PLUG POWER INC	2003	10.164640839058498	46.27799140465957	0.343	31.704387983251348	-21.539747144192848	37331.59884548152	0.6900346668134045	3344
125604	2004	125604	PLUG POWER INC	2004	13.627191908617354	48.23003845283873	0.33	33.53134313237143	-19.904151223754077	40407.10191055915	1.7538151173006216	3344
125604	2005	125604	PLUG POWER INC	2005	11.790419737543823	50.2047048179145	0.309	36.884899589966864	-25.09447985242304	43090.198546961474	1.0572883042111614	3344
125604	2006	125604	PLUG POWER INC	2006	7.114064712931692	50.22506220312147	0.324	42.15478447180157	-35.04071975886988	46689.000254203434	1.3236164315301007	3344
125604	2007	125604	PLUG POWER INC	2007	15.407268526409485	51.776747560160054	0.39	59.11149934662804	-43.70423082021855	50649.58430392213	2.9862858070275093	3344
125604	2008	125604	PLUG POWER INC	2008	17.60246224040277	59.366605080307856	0.208	69.34471365638767	-51.7422514159849	53492.76274386406	1.409878088765686	3344
125604	2009	125604	PLUG POWER INC	2009	12.293	59.98869034155169	0.212	35.625924	-23.332924	54873.0	0.533	3344
125604	2010	125604	PLUG POWER INC	2010	19.698747648046613	42.91152832460222	0.149	46.85559107370466	-27.156843425658046	58192.89052542133	1.0857227458915266	3344
125604	2011	125604	PLUG POWER INC	2011	28.439658633504568	36.43838176212277	0.195	44.23871977269687	-15.799061139192299	60953.890816253	1.2821504544575517	3344
125604	2012	125604	PLUG POWER INC	2012	26.85372802731864	35.61099172609964	0.156	50.07006983944129	-23.21634181212265	62223.95935118233	0.07400590149624751	3344
125604	2013	125604	PLUG POWER INC	2013	27.289234493937094	37.60549379209608	0.214	39.302377972465585	-12.01314347852849	62682.861773938734	0.10417839846829598	3344
125604	2014	125604	PLUG POWER INC	2014	65.59235317545418	34.59384890043009	0.326	76.48236267271224	-10.890009497258054	64311.75515456021	1.3042996658482102	3344
126497	2002	126497	VIRATA CORP	2002	97.53070209314899	10.02799723428131	0.408	102.87898663783118	-5.348284544682178	34059.6277129837	17.449253415581957	3344
130762	2001	130762	INTERSIL CORP  -CL A	2001	355.6234013927288	302.0541474654378	2.036	239.09259429010748	116.53080710262132	31764.418883155668	45.95340420719294	3344
130762	2002	130762	INTERSIL CORP  -CL A	2002	501.82899513400787	230.23361255001532	2.062	336.450132076929	165.37886305707886	34059.6277129837	59.00522219376677	3344
130762	2003	130762	INTERSIL CORP  -CL A	2003	412.7679986991341	279.94571363944806	1.598	239.5635855116062	173.2044131875279	37331.59884548152	64.72128982556539	3344
130762	2004	130762	INTERSIL CORP  -CL A	2004	452.333111011676	292.550327980095	1.481	282.6250213175513	169.70808969412477	40407.10191055915	6.531524203082463	3344
130762	2005	130762	INTERSIL CORP  -CL A	2005	524.7855850184908	251.7475976795199	1.336	336.08953235240114	188.69605266608968	43090.198546961474	25.407728047244596	3344
130762	2006	130762	INTERSIL CORP  -CL A	2006	672.3653629661909	257.18373411104386	1.423	439.1404101754004	233.22495279079052	46689.000254203434	32.27236392704019	3344
130762	2007	130762	INTERSIL CORP  -CL A	2007	716.7831373217431	276.5135090518902	1.494	465.40767948790796	251.37545783383513	50649.58430392213	24.45528686196543	3344
130762	2008	130762	INTERSIL CORP  -CL A	2008	756.8390103838891	305.0041270015958	1.531	521.3101793580869	235.5288310258023	53492.76274386406	31.66810734547478	3344
130762	2009	130762	INTERSIL CORP  -CL A	2009	611.398	315.53513454025205	1.503	438.5278810000001	172.87011899999993	54873.0	11.073	3344
130762	2010	130762	INTERSIL CORP  -CL A	2010	831.9339632184838	320.5577066996388	1.762	548.7185020333015	283.2154611851822	58192.89052542133	20.50140650446627	3344
130762	2011	130762	INTERSIL CORP  -CL A	2011	782.8884382173999	329.1722670843608	1.643	544.8449850214641	238.0434531959357	60953.890816253	10.198220847031523	3344
130762	2012	130762	INTERSIL CORP  -CL A	2012	625.2265410448146	324.9576961807178	1.488	482.81883093506684	142.40771010974765	62223.95935118233	11.897871855935177	3344
130762	2013	130762	INTERSIL CORP  -CL A	2013	590.0767352633416	311.4379961648136	1.017	432.2731960032008	157.80353926014075	62682.861773938734	17.43908848594061	3344
130762	2014	130762	INTERSIL CORP  -CL A	2014	574.4870970047893	326.2362514530984	1.031	385.22690685538635	189.2601901494031	64311.75515456021	9.098713238687761	3344
133245	2000	133245	INSILICON CORP	2000	16.779174502622983	3.499698912542949	0.091	13.586726054967173	3.192448447655812	28345.375960935697	0.758305657254911	3344
133245	2001	133245	INSILICON CORP	2001	15.693333530464093	4.185483870967742	0.119	17.47171592471576	-1.778382394251666	31764.418883155668	0.9387016512101334	3344
133288	1999	133288	SILICON LABORATORIES INC	1999	27.688357680389554	6.45153539333942	0.148	14.342707392651619	13.345650287737934	23840.047218533273	11.410138248847927	3344
133288	2000	133288	SILICON LABORATORIES INC	2000	68.03457718829391	18.034548309777666	0.256	38.92524596654459	29.10933122174932	28345.375960935697	17.957902134364055	3344
133288	2001	133288	SILICON LABORATORIES INC	2001	54.751837012286174	36.4389400921659	0.279	48.688328134009495	6.063508878276678	31764.418883155668	6.107215562090025	3344
133288	2002	133288	SILICON LABORATORIES INC	2002	140.58546381401098	41.56739172324677	0.364	95.09669575963544	45.48876805437553	34059.6277129837	23.937467291696827	3344
133288	2003	133288	SILICON LABORATORIES INC	2003	264.4863612341965	60.31440850486315	0.486	165.94318793446885	98.54317329972763	37331.59884548152	12.587905133989986	3344
133288	2004	133288	SILICON LABORATORIES INC	2004	385.17227114236744	70.68988916534721	0.588	256.017233024053	129.15503811831448	40407.10191055915	22.243191357823836	3344
133288	2005	133288	SILICON LABORATORIES INC	2005	372.1675802799416	69.27034038904787	0.651	263.5876264414545	108.57995383848711	43090.198546961474	21.56592970461545	3344
133288	2006	133288	SILICON LABORATORIES INC	2006	421.79340523659073	79.57299290155726	0.742	336.4383974289138	85.35500780767696	46689.000254203434	30.90722227412875	3344
133288	2007	133288	SILICON LABORATORIES INC	2007	319.5471848190444	108.12264775106021	0.562	252.54074768479066	67.00643713425372	50649.58430392213	5.464375557899861	3344
133288	2008	133288	SILICON LABORATORIES INC	2008	408.6984738829452	88.87731971062594	0.727	296.6598489616111	112.03862492133412	53492.76274386406	12.444484187308117	3344
133288	2009	133288	SILICON LABORATORIES INC	2009	441.02	98.29817858541388	0.736	313.614472	127.405528	54873.0	8.943	3344
133288	2010	133288	SILICON LABORATORIES INC	2010	499.0602302385336	103.4332765353964	0.845	342.6907661804277	156.3694640581059	58192.89052542133	13.6702363914524	3344
133288	2011	133288	SILICON LABORATORIES INC	2011	506.1046541553856	97.70261712707757	0.908	365.9995676298912	140.1050865254944	60953.890816253	8.40263005221427	3344
133288	2012	133288	SILICON LABORATORIES INC	2012	579.3834792178804	96.8662751994595	0.997	409.9518508994785	169.43162831840203	62223.95935118233	96.81774623566136	3344
133288	2013	133288	SILICON LABORATORIES INC	2013	595.0953035556741	200.969	1.06	435.1934590369109	159.90184451876323	62682.861773938734	9.828434132972932	3344
133288	2014	133288	SILICON LABORATORIES INC	2014	633.8694688683966	203.29467502344173	1.107	465.7379451201454	168.1315237482511	64311.75515456021	10.36147469861724	3344
133346	2000	133346	VIASYSTEMS GROUP INC	2000	1059.0814609521924	861.2331202844923	24.7	222.5133128773631	836.5681480748293	28345.375960935697	155.15455153418046	3344
133346	2001	133346	VIASYSTEMS GROUP INC	2001	891.9201029022577	830.0662392405512	18.8	243.35112438458236	648.5689785176753	31764.418883155668	89.1087989142728	3344
133346	2011	133346	VIASYSTEMS GROUP INC	2011	1088.4577769999692	669.8869475847894	14.099	84.6551951327479	1003.8025818672212	60953.890816253	98.30206923225681	3344
133346	2012	133346	VIASYSTEMS GROUP INC	2012	1193.0366271355542	820.1890207118439	14.128	160.21158779301183	1032.8250393425424	62223.95935118233	103.15378995607085	3344
133346	2013	133346	VIASYSTEMS GROUP INC	2013	1201.3438929809804	1009.1419983701462	15.057	128.22194341287258	1073.121949568108	62682.861773938734	101.8517475691707	3344
133346	2014	133346	VIASYSTEMS GROUP INC	2014	1229.6416572204691	927.2589872595959	14.854	152.30282568957242	1077.3388315308969	64311.75515456021	59.76147839090221	3344
133944	2000	133944	OCLARO INC	2000	25.954666930614668	29.75995963285117	0.615	42.16243360058068	-16.20776666996601	28345.375960935697	47.93761264069461	3344
133944	2001	133944	OCLARO INC	2001	23.56698256871239	94.00304629662429	0.643	57.13066295075179	-33.56368038203941	31764.418883155668	65.62090024881249	3344
133944	2002	133944	OCLARO INC	2002	43.016915115470766	144.83959713317512	1.945	50.84369738163281	-7.826782266162036	34059.6277129837	18.10397621619214	3344
133944	2003	133944	OCLARO INC	2003	129.31501280539857	240.1721511813255	1.68	145.80765071750886	-16.492637912110297	37331.59884548152	22.971441148957247	3344
133944	2005	133944	OCLARO INC	2005	175.07802869357673	292.023883896391	2.309	143.22773624990165	31.850292443675077	43090.198546961474	16.94201318699927	3344
133944	2006	133944	OCLARO INC	2006	210.30704143515996	119.68534282443355	2.123	141.11239332534407	69.19464810981589	46689.000254203434	10.498614095736398	3344
133944	2007	133944	OCLARO INC	2007	192.04780031437608	115.74423595443791	1.985	136.24162926348882	55.80617105088726	50649.58430392213	6.525399659173902	3344
133944	2008	133944	OCLARO INC	2008	231.56367998741345	104.66625038365066	2.393	118.67015418502206	112.89352580239141	53492.76274386406	9.076276491102567	3344
133944	2009	133944	OCLARO INC	2009	210.923	118.54223332310265	2.585	72.67029500000001	138.252705	54873.0	9.231	3344
133944	2010	133944	OCLARO INC	2010	397.09571691585575	121.0403583552967	2.865	208.3405931980496	188.75512371780613	58192.89052542133	11.956768494299956	3344
133944	2011	133944	OCLARO INC	2011	480.24480383779945	137.38109957808655	3.085	281.18999577924416	199.05480805855527	60953.890816253	40.25430284277702	3344
133944	2012	133944	OCLARO INC	2012	396.46791397097394	198.2635386500938	2.79	264.2215936558222	132.2463203151518	62223.95935118233	19.25291991233147	3344
133944	2013	133944	OCLARO INC	2013	601.1900121052956	170.21707309477094	2.782	520.0673341677096	81.12267793758595	62682.861773938734	16.144836130194843	3344
133944	2014	133944	OCLARO INC	2014	399.16158614421533	156.674	1.294	374.5678298254751	24.59375631874023	64311.75515456021	8.082411800542767	3344
133945	2000	133945	DDI CORP	2000	328.39420634135075	129.0094813030593	3.2	164.0963410208189	164.29786532053188	28345.375960935697	30.84683132516464	3344
133945	2001	133945	DDI CORP	2001	267.3374040835637	199.69003796434237	2.3	158.79126809290767	108.54613599065601	31764.418883155668	39.76249717258539	3344
133945	2002	133945	DDI CORP	2002	192.18815169537345	227.03647290803255	1.9	126.74418784274349	65.44396385262995	34059.6277129837	11.930875524724694	3344
133945	2003	133945	DDI CORP	2003	197.66819789422334	214.68362202307156	1.8	132.39904061140697	65.26915728281635	37331.59884548152	6.331370714796677	3344
133945	2004	133945	DDI CORP	2004	159.5709473435376	86.25641839429628	1.2	109.30948018945182	50.261467154085786	40407.10191055915	4.748424603303723	3344
133945	2005	133945	DDI CORP	2005	161.4122974969619	52.49696578293935	1.4	93.96333307105203	67.44896442590988	43090.198546961474	7.089864214124694	3344
133945	2006	133945	DDI CORP	2006	179.86254857101355	54.36609941539496	1.3	102.821567345753	77.04098122526055	46689.000254203434	6.500773407248227	3344
133945	2007	133945	DDI CORP	2007	171.44291044069465	59.63889212272588	1.3	88.36836922144575	83.07454121924891	50649.58430392213	7.0934431550758745	3344
133945	2008	133945	DDI CORP	2008	187.6592983008181	67.32883888788933	1.23	98.89376179987413	88.765536500944	53492.76274386406	11.421105447753037	3344
133945	2009	133945	DDI CORP	2009	157.991	74.06127046414817	1.604	57.04870800000002	100.942292	54873.0	3.649	3344
133945	2010	133945	DDI CORP	2010	270.8883808444777	95.90737350111657	1.676	138.22548809355212	132.6628927509256	58192.89052542133	10.868084686374178	3344
133945	2011	133945	DDI CORP	2011	271.14958976312295	103.66293775863346	1.627	136.89592233809284	134.2536674250301	60953.890816253	13.771030748404565	3344
134932	2001	134932	ON SEMICONDUCTOR CORP	2001	897.881337137957	2011.2111859923157	9.376	570.1928352824635	327.68850185549337	31764.418883155668	133.34087310563223	3344
134932	2002	134932	ON SEMICONDUCTOR CORP	2002	837.6457866687264	1845.7815008025682	7.82	440.3811384876805	397.26464818104586	34059.6277129837	29.50706499348618	3344
134932	2003	134932	ON SEMICONDUCTOR CORP	2003	869.2223261108173	1537.9146338473606	10.055	327.748786536038	541.4735395747794	37331.59884548152	73.29554834094536	3344
134932	2004	134932	ON SEMICONDUCTOR CORP	2004	1069.5923071078203	1704.5301127925673	10.325	427.1405565358347	642.4517505719856	40407.10191055915	88.72113580407597	3344
134932	2005	134932	ON SEMICONDUCTOR CORP	2005	1102.1061190232642	1761.3559654871926	10.539	416.20925415934454	685.8968648639197	43090.198546961474	50.588969911204714	3344
134932	2006	134932	ON SEMICONDUCTOR CORP	2006	1390.674365399281	1663.0460129852597	11.691	497.3008524893779	893.3735129099031	46689.000254203434	207.83373301358912	3344
134932	2007	134932	ON SEMICONDUCTOR CORP	2007	1483.0596746396986	1905.0479295888595	11.658	553.3068556710795	929.7528189686192	50649.58430392213	142.72092834537042	3344
134932	2008	134932	ON SEMICONDUCTOR CORP	2008	2020.531780994336	1987.0553335458087	14.172	842.0618313404658	1178.4699496538701	53492.76274386406	94.38930122109949	3344
134932	2009	134932	ON SEMICONDUCTOR CORP	2009	1768.9	2301.262933097684	12.887	754.6516490000001	1014.248351	54873.0	55.3	3344
134932	2010	134932	ON SEMICONDUCTOR CORP	2010	2340.218908693629	2179.6082949308757	14.307	951.2771541869828	1388.9417545066465	58192.89052542133	186.4482060899176	3344
134932	2011	134932	ON SEMICONDUCTOR CORP	2011	3543.684822779728	2447.18389504637	19.442	1874.0559198674068	1669.6289029123213	60953.890816253	305.9369561013343	3344
134932	2012	134932	ON SEMICONDUCTOR CORP	2012	2977.5876078705655	2816.1558355802567	20.0	1314.1746294601069	1663.4129784104587	62223.95935118233	243.17580196779795	3344
134932	2013	134932	ON SEMICONDUCTOR CORP	2013	2854.6954184533943	2772.021547937811	22.0	1028.8023964381707	1825.8930220152238	62682.861773938734	145.66204902954536	3344
134932	2014	134932	ON SEMICONDUCTOR CORP	2014	3228.8634947867204	2531.3774954062724	24.5	1085.3303105501263	2143.5331842365936	64311.75515456021	188.58345487104697	3344
135044	2000	135044	PIXELWORKS INC	2000	34.70454320498862	3.9035103255286745	0.109	30.61915338678281	4.085389818205813	28345.375960935697	4.716457159697584	3344
135044	2001	135044	PIXELWORKS INC	2001	67.12893830299984	8.07258064516129	0.176	57.24045714623652	9.888481156763318	31764.418883155668	5.641257634019453	3344
135044	2002	135044	PIXELWORKS INC	2002	79.27782497875957	12.961472631853372	0.26	63.94746273267939	15.330362246080172	34059.6277129837	6.25995167522186	3344
135044	2003	135044	PIXELWORKS INC	2003	114.57457620228463	21.75525899117847	0.241	91.34700109760557	23.227575104679055	37331.59884548152	4.825840532658339	3344
135044	2004	135044	PIXELWORKS INC	2004	148.7678033213167	24.249240053892148	0.349	103.25589588592366	45.51190743539304	40407.10191055915	9.187735224893979	3344
135044	2005	135044	PIXELWORKS INC	2005	150.11584091763493	38.07302163480275	0.469	133.3083265577325	16.807514359902434	43090.198546961474	8.376813741572915	3344
135044	2006	135044	PIXELWORKS INC	2006	121.29770853760395	66.6329169647279	0.449	123.41148000871556	-2.1137714711116082	46689.000254203434	5.4553759589730815	3344
135044	2007	135044	PIXELWORKS INC	2007	100.35414654470391	71.50294471740474	0.246	90.161265458402	10.192881086301908	50649.58430392213	2.927452730666234	3344
135044	2008	135044	PIXELWORKS INC	2008	83.74370673379484	18.10725284959836	0.229	65.90760698552549	17.836099748269348	53492.76274386406	2.14412749510666	3344
135044	2009	135044	PIXELWORKS INC	2009	61.093	20.998266322007332	0.222	49.361194000000005	11.731805999999999	54873.0	1.481	3344
135044	2010	135044	PIXELWORKS INC	2010	70.3350395532806	18.73732045768076	0.243	57.608373965646294	12.726665587634297	58192.89052542133	1.7717021171593543	3344
135044	2011	135044	PIXELWORKS INC	2011	66.51190561978196	20.274821902292167	0.242	56.10123637262067	10.410669247161291	60953.890816253	2.5488300135370334	3344
135044	2012	135044	PIXELWORKS INC	2012	61.41550867593059	21.521754250002484	0.233	48.06725980477871	13.348248871151885	62223.95935118233	1.741036272379669	3344
135044	2013	135044	PIXELWORKS INC	2013	49.36293317466506	21.451	0.223	39.209107696095536	10.153825478569521	62682.861773938734	1.589893756804445	3344
135044	2014	135044	PIXELWORKS INC	2014	62.21520990982711	21.733	0.22	52.59569253392972	9.619517375897386	64311.75515456021	2.640906825188768	3344
135708	2000	135708	NEW FOCUS INC	2000	53.02583391071959	11.857333971550252	1.622	37.24330594872811	15.782527961991487	28345.375960935697	58.67744239030639	3344
135708	2001	135708	NEW FOCUS INC	2001	68.48248739595192	72.49123304169177	0.903	146.0975449827757	-77.61505758682378	31764.418883155668	59.37683781949785	3344
135708	2002	135708	NEW FOCUS INC	2002	25.788213485749594	121.4274193548387	0.253	58.07635668494632	-32.288143199196725	34059.6277129837	1.4074313264817557	3344
135805	2001	135805	MICROTUNE INC	2001	46.649762703845525	23.722838715527697	1.139	19.58196623150051	27.067796472345016	31764.418883155668	9.79416421624067	3344
135805	2004	135805	MICROTUNE INC	2004	47.415299669894544	33.7916416354012	0.164	51.79683402703318	-4.38153435713863	40407.10191055915	0.5488128938491741	3344
135805	2005	135805	MICROTUNE INC	2005	49.82558292024025	20.13646618610026	0.178	42.94849144525752	6.877091474982736	43090.198546961474	0.8308021209266884	3344
135805	2006	135805	MICROTUNE INC	2006	62.85361513599884	20.806691245253948	0.204	60.326916512328864	2.52669862366997	46689.000254203434	1.4616877926230445	3344
135805	2007	135805	MICROTUNE INC	2007	86.30286157983448	21.020131192038	0.206	76.88508796848664	9.417773611347842	50649.58430392213	1.4282236468392435	3344
135805	2008	135805	MICROTUNE INC	2008	106.21853366897419	22.192396313364057	0.22	87.0968376337319	19.121696035242287	53492.76274386406	2.4461732590141785	3344
135805	2009	135805	MICROTUNE INC	2009	74.57	24.3963133640553	0.276	69.339052	5.230947999999998	54873.0	0.821	3344
135945	2000	135945	CENTILLIUM COMMUNICATIONS	2000	37.26549869675674	9.734970445480322	0.273	59.37247154310601	-22.10697284634927	28345.375960935697	8.60773267741972	3344
135945	2001	135945	CENTILLIUM COMMUNICATIONS	2001	117.91401156171918	18.53399926794422	0.336	112.33822907580172	5.575782485917454	31764.418883155668	8.201764306717937	3344
135945	2002	135945	CENTILLIUM COMMUNICATIONS	2002	81.07824206379856	25.12327188940092	0.32	84.9934038773461	-3.9151618135475323	34059.6277129837	4.578605707668497	3344
135945	2003	135945	CENTILLIUM COMMUNICATIONS	2003	101.6106345786414	28.333881187445453	0.361	94.5284962803366	7.082138298304803	37331.59884548152	3.7032960986078254	3344
135945	2004	135945	CENTILLIUM COMMUNICATIONS	2004	60.069904683107204	31.874010404885773	0.34	77.23391896797722	-17.16401428487002	40407.10191055915	4.554279330578423	3344
135945	2005	135945	CENTILLIUM COMMUNICATIONS	2005	66.55563423995244	34.441302872653246	0.286	59.3131009520812	7.242533287871235	43090.198546961474	1.4467598717283858	3344
135945	2006	135945	CENTILLIUM COMMUNICATIONS	2006	58.614772851073106	35.4646747446811	0.26	56.60473181537567	2.0100410356974296	46689.000254203434	1.4585734010194442	3344
135945	2007	135945	CENTILLIUM COMMUNICATIONS	2007	37.09543018389106	34.19999291558925	0.245	45.38302274491979	-8.28759256102873	50649.58430392213	0.9332143146960967	3344
135966	2000	135966	SIRENZA MICRODEVICES INC	2000	22.863835824342605	6.444326973905522	0.122	18.269403807449933	4.5944320168926716	28345.375960935697	6.722736701313717	3344
135966	2001	135966	SIRENZA MICRODEVICES INC	2001	14.652483108357853	13.153389300178292	0.095	22.836572438162545	-8.184089329804694	31764.418883155668	3.838498077358064	3344
135966	2002	135966	SIRENZA MICRODEVICES INC	2002	15.995983625550322	14.216589861751151	0.121	14.24056769908087	1.755415926469452	34059.6277129837	0.8584885701878432	3344
135966	2003	135966	SIRENZA MICRODEVICES INC	2003	31.310215862433427	16.486630470512225	0.256	21.98423025326232	9.325985609171108	37331.59884548152	3.3478236944918285	3344
135966	2004	135966	SIRENZA MICRODEVICES INC	2004	51.71595734801218	24.20719294277313	0.292	31.781799454608393	19.934157893403793	40407.10191055915	2.988101823230187	3344
135966	2005	135966	SIRENZA MICRODEVICES INC	2005	56.108969146973706	27.462112644198147	0.252	39.028926132836745	17.080043014136965	43090.198546961474	1.4139511255516632	3344
135966	2006	135966	SIRENZA MICRODEVICES INC	2006	123.99498856084541	29.582781235733616	0.839	65.25651577877038	58.73847278207502	46689.000254203434	6.70217073094771	3344
137137	2000	137137	MANUFACTURERS SERVICES LTD	2000	1160.1181167310042	114.57221056249003	6.185	953.8190900392625	206.29902669174163	28345.375960935697	49.34087482855945	3344
137137	2001	137137	MANUFACTURERS SERVICES LTD	2001	1125.123822759732	169.58167139218605	5.052	923.9814095835121	201.14241317621995	31764.418883155668	16.74168740104049	3344
137137	2002	137137	MANUFACTURERS SERVICES LTD	2002	658.4977214798795	125.06346451300581	3.129	530.7202340310497	127.7774874488298	34059.6277129837	4.791279270451737	3344
137292	2002	137292	STRATOS INTERNATIONAL INC	2002	101.78033521279062	46.10625210245567	0.871	62.456563682706424	39.32377153008419	34059.6277129837	52.689596811010034	3344
137292	2003	137292	STRATOS INTERNATIONAL INC	2003	48.78978820277246	98.1336405529954	0.612	53.849675190048366	-5.059886987275899	37331.59884548152	25.06795795961041	3344
137292	2004	137292	STRATOS INTERNATIONAL INC	2004	43.59249284490109	112.12268909468054	0.487	40.43976884176045	3.1527240031406456	40407.10191055915	2.305881842536253	3344
137292	2005	137292	STRATOS INTERNATIONAL INC	2005	44.43307892045008	105.9341777878308	0.598	35.75101983721073	8.682059083239347	43090.198546961474	3.4586768550170923	3344
137292	2006	137292	STRATOS INTERNATIONAL INC	2006	73.04172567817844	105.44930875576037	0.554	54.012276210189924	19.029449467988524	46689.000254203434	1.0412449261370125	3344
137292	2007	137292	STRATOS INTERNATIONAL INC	2007	75.35746075033614	107.98212311980393	0.524	47.79251557676647	27.564945173569676	50649.58430392213	1.0387081067921773	3344
137292	2008	137292	STRATOS INTERNATIONAL INC	2008	91.19729389553177	111.07060888348859	0.524	58.454019823788535	32.74327407174324	53492.76274386406	1.1495623317138117	3344
137704	2002	137704	OMNIVISION TECHNOLOGIES INC	2002	41.482196647872094	3.775345622119816	0.104	34.06419402178111	7.418002626090985	34059.6277129837	2.887238472758855	3344
137704	2003	137704	OMNIVISION TECHNOLOGIES INC	2003	37.82104963616407	6.762672811059908	0.119	36.17870319931704	1.6423464368470262	37331.59884548152	3.144224949100314	3344
137704	2004	137704	OMNIVISION TECHNOLOGIES INC	2004	92.02259238309117	9.891978282307335	0.176	67.84677028544412	24.175822097647046	40407.10191055915	7.746287920693284	3344
137704	2005	137704	OMNIVISION TECHNOLOGIES INC	2005	278.1257376662208	17.92807057226872	0.308	187.90586198756785	90.21987567865294	43090.198546961474	10.708351413421953	3344
137704	2006	137704	OMNIVISION TECHNOLOGIES INC	2006	352.30961978429025	28.916923693616454	0.871	217.5110605730472	134.79855921124303	46689.000254203434	1.5395475827130505	3344
137704	2007	137704	OMNIVISION TECHNOLOGIES INC	2007	465.8125485294396	29.39525669949926	1.644	271.01498399712136	194.79756453231823	50649.58430392213	22.98040249939138	3344
137704	2008	137704	OMNIVISION TECHNOLOGIES INC	2008	519.335077092511	53.22531141850202	2.064	367.4937067337948	151.84137035871618	53492.76274386406	82.2548113704333	3344
137704	2009	137704	OMNIVISION TECHNOLOGIES INC	2009	799.628	81.86385956170129	1.882	618.059014	181.568986	54873.0	30.657	3344
137704	2010	137704	OMNIVISION TECHNOLOGIES INC	2010	513.1972403746939	113.60895009289894	1.328	446.5701661035467	66.62707427114732	58192.89052542133	31.808715392587473	3344
137704	2011	137704	OMNIVISION TECHNOLOGIES INC	2011	620.7506768651108	151.07	1.45	502.3116359031902	118.43904096192061	60953.890816253	13.069038870624638	3344
137704	2012	137704	OMNIVISION TECHNOLOGIES INC	2012	983.7960153461629	169.021	1.465	741.9832344198389	241.81278092632397	62223.95935118233	9.784908488856418	3344
137704	2013	137704	OMNIVISION TECHNOLOGIES INC	2013	920.9565235232566	176.21181463751665	1.796	712.0661154311742	208.89040809208237	62682.861773938734	22.699628336524384	3344
137704	2014	137704	OMNIVISION TECHNOLOGIES INC	2014	1437.7919385639736	221.1459310072546	2.057	1222.5803621212585	215.21157644271517	64311.75515456021	32.60564550371998	3344
137874	2000	137874	SMTC CORP	2000	516.5218252004355	60.973617184871934	5.0	346.819756507968	169.70206869246755	28345.375960935697	29.10352175736486	3344
137874	2001	137874	SMTC CORP	2001	452.54890074958973	98.92553103562278	2.6	376.7003267442376	75.84857400535212	31764.418883155668	21.622935987333182	3344
137874	2002	137874	SMTC CORP	2002	439.85788213485756	94.04377880184332	1.6	372.8924075075307	66.9654746273268	34059.6277129837	3.1043659321448853	3344
137874	2003	137874	SMTC CORP	2003	248.8889792267978	76.32250093513031	0.927	204.77163136712872	44.117347859669074	37331.59884548152	0.18378913773179995	3344
137874	2004	137874	SMTC CORP	2004	206.50248634410326	65.66387695091609	0.921	162.46761758423597	44.03486875986728	40407.10191055915	0.4479441208689899	3344
137874	2005	137874	SMTC CORP	2005	200.00349708430596	70.2651236072226	1.35	134.04284802545877	65.96064905884718	43090.198546961474	2.629991427392128	3344
137874	2006	137874	SMTC CORP	2006	238.57173984094126	72.07603686635944	1.3	163.38916730217525	75.18257253876601	46689.000254203434	2.2641626958173724	3344
137874	2007	137874	SMTC CORP	2007	242.79681078726588	75.9274193548387	1.5	154.98787947654492	87.80893131072096	50649.58430392213	1.9414915199220968	3344
137874	2008	137874	SMTC CORP	2008	238.58755506607926	81.19679312339863	1.0	178.7179436752674	59.86961139081185	53492.76274386406	1.3204566455035918	3344
137874	2009	137874	SMTC CORP	2009	179.509	79.27699553077994	1.0	116.96799999999999	62.541	54873.0	1.042	3344
137874	2010	137874	SMTC CORP	2010	265.6240516316993	68.75069037887992	1.5	164.06417545066458	101.55987618103468	58192.89052542133	1.193307999802596	3344
137874	2011	137874	SMTC CORP	2011	226.84091868353596	73.01615168539325	1.875	102.97537549285046	123.86554319068551	60953.890816253	0.8818410365499904	3344
137874	2012	137874	SMTC CORP	2012	304.76841899550516	76.40050013484027	2.3	148.92690001337132	155.84151898213386	62223.95935118233	6.010607512547795	3344
137874	2013	137874	SMTC CORP	2013	277.6872730257084	85.24234474980999	1.8	164.86838055766432	112.81889246804408	62682.861773938734	2.4083042384652926	3344
137874	2014	137874	SMTC CORP	2014	233.4252422822013	57.75806451612903	1.37	140.16000326787372	93.26523901432759	64311.75515456021	1.8193734192404971	3344
138346	2001	138346	VIRAGE LOGIC CORP	2001	23.480491446989074	7.176267281105991	0.202	17.282893978148056	6.197597468841017	31764.418883155668	3.780818819271658	3344
138346	2002	138346	VIRAGE LOGIC CORP	2002	35.23055534100564	10.849778402457408	0.284	20.44523982389743	14.78531551710821	34059.6277129837	5.1776548007438015	3344
138346	2003	138346	VIRAGE LOGIC CORP	2003	33.05581527704378	16.272400621153214	0.3	23.44339200780519	9.612423269238587	37331.59884548152	4.760909040884829	3344
138346	2004	138346	VIRAGE LOGIC CORP	2004	44.74828404265198	20.733996833295635	0.355	25.673377122257207	19.074906920394774	40407.10191055915	1.1323333224872287	3344
138346	2005	138346	VIRAGE LOGIC CORP	2005	46.67645850272336	21.90907034607555	0.384	31.306591129645657	15.369867373077701	43090.198546961474	3.3539005365817522	3344
138346	2006	138346	VIRAGE LOGIC CORP	2006	53.83937974361768	25.875367563899573	0.318	40.571970439771945	13.267409303845733	46689.000254203434	1.4284676155179752	3344
138346	2007	138346	VIRAGE LOGIC CORP	2007	44.05715584341799	27.834011538941095	0.417	31.927245611044828	12.129910232373161	50649.58430392213	0.2890935648786821	3344
138346	2008	138346	VIRAGE LOGIC CORP	2008	58.34054436752674	29.467741935483872	0.412	36.80302076777847	21.537523599748265	53492.76274386406	1.3115145011773823	3344
138346	2009	138346	VIRAGE LOGIC CORP	2009	47.443	31.92235485813468	0.637	25.489898999999994	21.953101000000004	54873.0	3.122	3344
138487	2002	138487	H POWER CORP	2002	2.813779253881208	4.375804375804376	0.183	16.954699158106127	-14.140919904224917	34059.6277129837	3.2034651315569707	3344
138487	2003	138487	H POWER CORP	2003	2.0943940810602055	6.783410138248848	0.183	18.231937883653806	-16.1375438025936	37331.59884548152	7.047818191823034	3344
138602	2001	138602	ADVANCED POWER TECHNOL INC	2001	27.24470334284489	15.922403476727341	0.197	19.57516374173899	7.6695396011059005	31764.418883155668	2.64080524768152	3344
138602	2002	138602	ADVANCED POWER TECHNOL INC	2002	33.54058855333282	17.99508426966292	0.278	24.40876959913493	9.131818954197884	34059.6277129837	2.9495930251979203	3344
138602	2003	138602	ADVANCED POWER TECHNOL INC	2003	39.751209398756046	27.0346232679161	0.276	27.899657709662993	11.851551689093052	37331.59884548152	5.313376987839103	3344
138602	2004	138602	ADVANCED POWER TECHNOL INC	2004	57.27202883990307	30.013106159895152	0.277	39.295636867122006	17.97639197278107	40407.10191055915	4.002212605342791	3344
138602	2005	138602	ADVANCED POWER TECHNOL INC	2005	56.80663746601271	32.135610895118056	0.286	39.989961619499745	16.816675846512968	43090.198546961474	2.2119445003016285	3344
138603	2000	138603	CHIPPAC INC	2000	326.2469893430994	519.0925046332094	6.753	63.97448414662311	262.2725051964763	28345.375960935697	105.61191526019293	3344
138603	2001	138603	CHIPPAC INC	2001	242.98904445791504	694.873399855174	5.445	36.32242337773701	206.66662108017806	31764.418883155668	52.467767473422306	3344
138603	2002	138603	CHIPPAC INC	2002	280.8882366571407	639.6246816281417	5.845	30.61561365567313	250.27262300146754	34059.6277129837	87.86424523154695	3344
138603	2003	138603	CHIPPAC INC	2003	348.94833123297695	731.0322456629343	6.319	43.79836253506245	305.1499686979145	37331.59884548152	143.7902382655588	3344
138610	2002	138610	PEMSTAR INC	2002	490.69823125048276	56.39861751152074	4.215	326.4378968100719	164.26033444041084	34059.6277129837	47.36941731897694	3344
138610	2003	138610	PEMSTAR INC	2003	534.5688849140209	108.49778402457409	3.761	399.9926208382455	134.5762640757754	37331.59884548152	41.743245474054916	3344
138610	2004	138610	PEMSTAR INC	2004	564.1130632265907	155.6650079167609	3.522	421.8693238326002	142.24373939399052	40407.10191055915	13.617284352324862	3344
138610	2005	138610	PEMSTAR INC	2005	585.2772750719088	165.52795376855326	3.678	411.25747632911055	174.01979874279826	43090.198546961474	23.0137479229947	3344
138610	2006	138610	PEMSTAR INC	2006	626.3536332933871	186.3120622654745	3.346	470.7423266877293	155.61130660565783	46689.000254203434	11.324966001224995	3344
138610	2007	138610	PEMSTAR INC	2007	824.7807889703237	190.68508226489848	2.356	691.1159555328296	133.6648334374941	50649.58430392213	5.199626714274122	3344
138612	2002	138612	TVIA INC	2002	10.383872711825134	2.603643139081615	0.275	7.97429906542056	2.4095736464045747	34059.6277129837	2.438508390027726	3344
138612	2003	138612	TVIA INC	2003	9.626407577543802	4.213321159113845	0.382	7.5548501971624855	2.071557380381316	37331.59884548152	2.269300610796236	3344
138612	2004	138612	TVIA INC	2004	1.884387109846598	6.4158986175115205	0.277	0.08147357045767023	1.8029135393889277	40407.10191055915	0.39696742914782157	3344
138612	2005	138612	TVIA INC	2005	2.018691915615356	7.866998416647818	0.141	0.7033799319817104	1.3153119836336455	43090.198546961474	0.09736789187930615	3344
138612	2006	138612	TVIA INC	2006	2.9787195409812255	6.307831063701856	0.151	2.182085012891746	0.7966345280894791	46689.000254203434	0.5221796588703064	3344
138612	2007	138612	TVIA INC	2007	5.3027290116091885	6.344577119903153	0.205	3.7637586879533376	1.5389703236558507	50649.58430392213	0.48892315182991153	3344
139804	2002	139804	TTM TECHNOLOGIES INC	2002	68.73329728894726	79.60280070371815	1.39	15.730416312659312	53.00288097628794	34059.6277129837	8.544800632453319	3344
139804	2003	139804	TTM TECHNOLOGIES INC	2003	146.6051465506728	82.68592090497943	1.541	72.943976584414	73.66116996625878	37331.59884548152	7.223903593242723	3344
139804	2004	139804	TTM TECHNOLOGIES INC	2004	203.17103852355905	86.84129988778437	1.733	89.56316918115276	113.60786934240629	40407.10191055915	18.98285230859337	3344
139804	2005	139804	TTM TECHNOLOGIES INC	2005	210.00778101258078	105.23446266846514	1.705	104.14724910605781	105.86053190652295	43090.198546961474	8.42655603416343	3344
139804	2006	139804	TTM TECHNOLOGIES INC	2006	335.2906997857428	110.85614114453745	4.009	85.18643733885312	250.1042624468897	46689.000254203434	14.480882826206567	3344
139804	2007	139804	TTM TECHNOLOGIES INC	2007	633.9204211881901	230.13951831108244	3.609	365.34117285002753	268.57924833816253	50649.58430392213	14.241661932970866	3344
139804	2008	139804	TTM TECHNOLOGIES INC	2008	669.6241740088105	219.86683541517638	3.585	384.44579924480803	285.17837476400246	53492.76274386406	17.561377885083512	3344
139804	2009	139804	TTM TECHNOLOGIES INC	2009	582.476	234.10449137192379	3.037	356.415699	226.06030099999998	54873.0	11.507	3344
139804	2011	139804	TTM TECHNOLOGIES INC	2011	1470.7161902016696	909.6047837055032	16.278	229.84035248458386	1240.875837717086	60953.890816253	138.02939470121834	3344
139804	2013	139804	TTM TECHNOLOGIES INC	2013	1403.614148833583	1099.9575581108425	16.29	211.30246824924578	1192.3116805843372	62682.861773938734	96.99572023876563	3344
139804	2014	139804	TTM TECHNOLOGIES INC	2014	1353.8361774046955	1139.904258994226	16.857	108.27851270896512	1245.5576646957304	64311.75515456021	101.19076190300368	3344
140759	2001	140759	IXIA	2001	57.03756819492289	6.168160296600664	0.204	38.8406670904978	18.19690110442509	31764.418883155668	6.862700746437457	3344
140759	2002	140759	IXIA	2002	52.20823356762184	13.066820276497696	0.233	36.7385486985402	15.469684869081638	34059.6277129837	5.246690198087052	3344
140759	2003	140759	IXIA	2003	67.91576893369648	18.191401335252714	0.287	44.23278019431683	23.682988739379653	37331.59884548152	4.658559401309635	3344
140759	2004	140759	IXIA	2004	98.75978285646744	22.9382492648722	0.403	56.83049549587578	41.92928736059165	40407.10191055915	9.443703293961974	3344
140759	2005	140759	IXIA	2005	139.30023343037743	32.425480742464565	0.64	67.4826413477763	71.81759208260112	43090.198546961474	14.177611734947666	3344
140759	2006	140759	IXIA	2006	163.5363329338708	44.61783965223134	0.75	99.6656770890075	63.870655844863286	46689.000254203434	12.802225751866041	3344
140759	2007	140759	IXIA	2007	164.8779425411435	55.96373062614562	0.756	108.65889816866468	56.21904437247882	50649.58430392213	11.088006167329382	3344
140759	2008	140759	IXIA	2008	172.93403870358713	63.267962788531754	0.769	117.06202800503462	55.87201069855252	53492.76274386406	8.485101393980942	3344
140759	2009	140759	IXIA	2009	177.994	67.1774268896571	1.073	113.91927100000001	64.07472899999999	54873.0	8.025	3344
140759	2010	140759	IXIA	2010	280.0240759099278	74.60947009656739	1.1	174.47184737087017	105.55222853905761	58192.89052542133	14.664166214282188	3344
140759	2011	140759	IXIA	2011	317.4378982694901	85.93201983168898	1.3	172.79774343981305	144.64015482967707	60953.890816253	14.763101914523304	3344
140759	2012	140759	IXIA	2012	425.24299805601555	98.884	1.71	227.91504067967455	197.327957376341	62223.95935118233	16.81831551182671	3344
140759	2013	140759	IXIA	2013	479.3450829930856	97.83546365296353	1.846	282.3044256139847	197.0406573791009	62682.861773938734	11.385478845215303	3344
140759	2014	140759	IXIA	2014	474.30940637031136	116.3856120672984	1.755	311.8992677920407	162.41013857827068	64311.75515456021	7.442723429394281	3344
140904	2001	140904	EVERGREEN SOLAR INC	2001	1.83183760367846	10.807958074057709	0.145	7.071939175303459	-5.240101571624999	31764.418883155668	10.608459624519341	3344
140904	2002	140904	EVERGREEN SOLAR INC	2002	5.208928709353518	21.472848995784776	0.132	9.908238201900057	-4.699309492546537	34059.6277129837	3.2468906234341772	3344
140904	2003	140904	EVERGREEN SOLAR INC	2003	7.570226431968779	23.368663594470046	0.151	12.65798121874873	-5.087754786779953	37331.59884548152	7.85340890331811	3344
140904	2004	140904	EVERGREEN SOLAR INC	2004	19.870490599170935	30.430897986880797	0.25	20.31182723074455	-0.44133663157361686	40407.10191055915	11.769108124816974	3344
140904	2005	140904	EVERGREEN SOLAR INC	2005	38.49590404000664	37.06087363181864	0.29	39.57105638174171	-1.075152341735074	43090.198546961474	61.097293807613745	3344
140904	2006	140904	EVERGREEN SOLAR INC	2006	93.6430983767295	90.0676828261707	0.33	95.50975959617968	-1.866661219450192	46689.000254203434	111.77240026160891	3344
140904	2007	140904	EVERGREEN SOLAR INC	2007	66.15722591519422	69.21550125272509	0.4	63.09338484555801	3.0638410696362	50649.58430392213	51.472855635802965	3344
140904	2008	140904	EVERGREEN SOLAR INC	2008	110.09184235368156	143.2578026606835	0.801	106.0735918816866	4.018250471994962	53492.76274386406	343.03655349886236	3344
140904	2009	140904	EVERGREEN SOLAR INC	2009	271.848	502.23311143331887	0.729	221.82058300000003	50.027416999999986	54873.0	110.82	3344
140904	2010	140904	EVERGREEN SOLAR INC	2010	342.71248507900543	542.754367934224	1.034	274.4381775143141	68.27430756469134	58192.89052542133	47.332576617480136	3344
141007	2001	141007	OPTICAL COMMUNICATION PRODS	2001	106.45948223605423	11.485010567579376	0.285	54.88329982110384	51.57618241495039	31764.418883155668	26.48495815426374	3344
141007	2002	141007	OPTICAL COMMUNICATION PRODS	2002	28.737931567158416	38.184331797235025	0.246	20.655856955279216	8.082074611879198	34059.6277129837	3.0876638198844217	3344
141007	2003	141007	OPTICAL COMMUNICATION PRODS	2003	31.611041099231677	40.69573693934688	0.296	27.345716492540348	4.265324606691329	37331.59884548152	3.7869366642821767	3344
141007	2004	141007	OPTICAL COMMUNICATION PRODS	2004	48.24351819801261	52.880570006785796	0.324	33.4740736363099	14.769444561702706	40407.10191055915	1.9425373377151596	3344
141007	2005	141007	OPTICAL COMMUNICATION PRODS	2005	48.939946319755904	48.76794085225312	0.317	32.55612470602635	16.383821613729552	43090.198546961474	0.5069480457629092	3344
141007	2006	141007	OPTICAL COMMUNICATION PRODS	2006	63.67614482332861	49.37255731608191	0.591	36.36529306024622	27.310851763082393	46689.000254203434	0.9706520497887405	3344
141044	2001	141044	TRANSMETA CORP	2001	26.309564291733817	31.378249795761448	0.442	121.8391575616896	-95.52959326995578	31764.418883155668	8.633793259443566	3344
141044	2002	141044	TRANSMETA CORP	2002	18.727890631034217	39.85217196226371	0.289	81.26667722252259	-62.538786591488375	34059.6277129837	6.214299235043259	3344
141044	2003	141044	TRANSMETA CORP	2003	14.077808040977276	42.90555299729612	0.296	65.10660108134476	-51.028793040367496	37331.59884548152	1.2237935398668356	3344
141044	2004	141044	TRANSMETA CORP	2004	24.858375475951267	43.28571428571429	0.31	87.69668290459022	-62.838307428638956	40407.10191055915	2.447965813078233	3344
141044	2005	141044	TRANSMETA CORP	2005	63.58660966419247	43.06152454195884	0.221	51.3674237854189	12.219185878773574	43090.198546961474	0.8435022807370327	3344
141044	2006	141044	TRANSMETA CORP	2006	44.07705995569597	12.965388213283443	0.198	47.902325961433704	-3.8252660057377335	46689.000254203434	0.4744256542817694	3344
141044	2007	141044	TRANSMETA CORP	2007	2.3483514194269266	9.538064404169244	0.035	28.105301782095715	-25.75695036266879	50649.58430392213	0.04868944250588331	3344
141236	2001	141236	ALLIANCE FIBER OPTIC PRODUCT	2001	15.071632390555466	12.45911704627301	0.376	13.506406256930378	1.5652261336250888	31764.418883155668	4.994345170775843	3344
141236	2002	141236	ALLIANCE FIBER OPTIC PRODUCT	2002	10.128215030508999	11.735306838387237	0.307	12.06010736077856	-1.9318923302695614	34059.6277129837	0.8974601654622589	3344
141236	2003	141236	ALLIANCE FIBER OPTIC PRODUCT	2003	9.325582340745559	9.75	0.387	1.4581958616203903	7.867386479125169	37331.59884548152	0.2993451824134706	3344
141278	2002	141278	MOSYS INC	2002	21.465204294431143	6.599408422008665	0.095	7.790055611338535	13.675148683092608	34059.6277129837	1.5098709483459343	3344
141278	2003	141278	MOSYS INC	2003	15.637221025244928	12.337209861117787	0.092	10.11075897394203	5.5264620513028975	37331.59884548152	0.5425631431244153	3344
141278	2004	141278	MOSYS INC	2004	9.135731593033169	12.657480547388806	0.069	10.24305469957027	-1.1073231065370994	40407.10191055915	0.3785290512912287	3344
141278	2005	141278	MOSYS INC	2005	10.737797361449891	12.42841793300509	0.076	11.704031263933693	-0.9662339024838026	43090.198546961474	1.1123223300559866	3344
141278	2006	141278	MOSYS INC	2006	13.535425064458728	2.4936807861895427	0.08	14.921596397574172	-1.386171333115443	46689.000254203434	0.21593115118294975	3344
141278	2007	141278	MOSYS INC	2007	13.573092437929663	2.6756783841263125	0.184	14.694263583508512	-1.121171145578849	50649.58430392213	1.0021910249127648	3344
141278	2008	141278	MOSYS INC	2008	13.79208621774701	3.7825309301808714	0.191	19.663113593455	-5.871027375707993	53492.76274386406	0.48088865043170687	3344
141278	2009	141278	MOSYS INC	2009	11.458	3.840044847239092	0.152	18.683304	-7.2253039999999995	54873.0	1.103	3344
141278	2010	141278	MOSYS INC	2010	15.743419588484027	4.416538180637832	0.162	24.715022153883503	-8.971602565399476	58192.89052542133	1.3936731974534866	3344
141278	2011	141278	MOSYS INC	2011	14.522488392921483	4.379	0.143	26.95618649564027	-12.43369810271879	60953.890816253	0.33745890543415197	3344
141278	2012	141278	MOSYS INC	2012	6.255721382800366	4.5620095741005775	0.095	28.786274852658323	-22.530553469857956	62223.95935118233	0.7002096833875726	3344
141278	2013	141278	MOSYS INC	2013	4.511787275077453	4.62773157996519	0.104	22.494708549621453	-17.982921274544	62682.861773938734	0.14453579607313136	3344
141278	2014	141278	MOSYS INC	2014	5.494112721219733	4.456584799845291	0.116	29.96618159165875	-24.472068870439017	64311.75515456021	0.55015046061255	3344
141845	2001	141845	AGERE SYSTEMS INC	2001	3016.100654966956	5442.643850057613	14.4	2637.791741206736	378.30891376022	31764.418883155668	817.6883058131644	3344
141845	2002	141845	AGERE SYSTEMS INC	2002	1681.4706109523443	5129.991830457975	10.7	1578.0969336525836	103.37367729976056	34059.6277129837	217.12745938603038	3344
141845	2003	141845	AGERE SYSTEMS INC	2003	1495.1827310053252	3242.298655142692	6.8	1068.9631285824628	426.2196024228626	37331.59884548152	127.66191602927421	3344
141845	2004	141845	AGERE SYSTEMS INC	2004	1614.2240833452936	2408.668941205808	6.6	1101.8577085109796	512.366374834314	40407.10191055915	105.20721482879424	3344
141845	2005	141845	AGERE SYSTEMS INC	2005	1465.2783241972006	2459.6774193548385	6.2	984.7969505424851	480.48137365471547	43090.198546961474	138.64341126292507	3344
141845	2006	141845	AGERE SYSTEMS INC	2006	1425.354976940117	1926.9351529646465	5.1	1015.6537567636273	409.7012201764897	46689.000254203434	89.27922596987345	3344
142814	2003	142814	SYNAPTICS INC	2003	81.874059921135	5.495165659748592	0.189	64.52772551729744	17.34633440383755	37331.59884548152	1.437297089088208	3344
142814	2004	142814	SYNAPTICS INC	2004	112.519523499962	6.267812712056096	0.197	86.37566422112843	26.143859278833567	40407.10191055915	0.9848262996344863	3344
142814	2005	142814	SYNAPTICS INC	2005	181.96990758954723	6.722460981678354	0.219	125.87505529764559	56.09485229190163	43090.198546961474	14.654926074486436	3344
142814	2006	142814	SYNAPTICS INC	2006	167.55365508225296	22.19068084143859	0.254	136.51409194901404	31.039563133238918	46689.000254203434	3.1891370020866425	3344
142814	2007	142814	SYNAPTICS INC	2007	252.62485086074653	25.26806890178045	0.312	205.96313845804212	46.661712402704396	50649.58430392213	5.895479996754037	3344
142814	2008	142814	SYNAPTICS INC	2008	355.0355962869729	30.535409673691742	0.42	280.4240088105727	74.61158747640026	53492.76274386406	7.0205768676661995	3344
142814	2009	142814	SYNAPTICS INC	2009	473.302	37.4754606882938	0.524	368.741548	104.560452	54873.0	9.31	3344
142814	2010	142814	SYNAPTICS INC	2010	520.8590446517086	38.559282444174535	0.586	415.1372367329597	105.72180791874888	58192.89052542133	8.949316488180427	3344
142814	2011	142814	SYNAPTICS INC	2011	616.1665242590515	45.78079823541685	0.676	486.030368852881	130.13615540617047	60953.890816253	11.187391220266873	3344
142814	2012	142814	SYNAPTICS INC	2012	563.8871460456887	55.665	0.697	440.1070610863684	123.78008495932032	62223.95935118233	9.828552994867026	3344
142814	2013	142814	SYNAPTICS INC	2013	680.7566835593673	58.032	0.852	513.0625330843883	167.6941504749789	62682.861773938734	45.53722266020948	3344
142814	2014	142814	SYNAPTICS INC	2014	967.6368166824954	92.10876967872477	1.23	714.2300787353329	253.4067379471625	64311.75515456021	35.69978030904425	3344
144137	2001	144137	MULTILINK TECHNOLOGY CORP	2001	96.4472108461345	23.94930875576037	0.382	87.77728314384139	8.66992770229312	31764.418883155668	19.898213073965167	3344
144137	2002	144137	MULTILINK TECHNOLOGY CORP	2002	14.109060013902834	45.99367511873321	0.187	53.369012898741026	-39.25995288483819	34059.6277129837	6.980369450723202	3344
145809	2002	145809	LOGICVISION INC	2002	12.014366262454622	4.420506912442397	0.092	14.394126824747042	-2.37976056229242	34059.6277129837	0.9008005879143517	3344
145809	2003	145809	LOGICVISION INC	2003	7.318996707183219	5.153984788547204	0.089	12.816355136387658	-5.497358429204438	37331.59884548152	0.49524019149287407	3344
145809	2004	145809	LOGICVISION INC	2004	8.521954967200518	4.57362587649853	0.102	11.20009624557819	-2.6781412783776712	40407.10191055915	0.59870497510819	3344
145809	2005	145809	LOGICVISION INC	2005	9.513817854363923	5.151549423207419	0.078	13.727466974410085	-4.213649120046161	43090.198546961474	0.8689026003577212	3344
145809	2006	145809	LOGICVISION INC	2006	9.548062606674655	5.009047726758652	0.059	12.613762392417472	-3.0656997857428165	46689.000254203434	0.21696928171748317	3344
145809	2007	145809	LOGICVISION INC	2007	11.001268867299206	4.324733601309446	0.053	11.616842793023125	-0.6155739257239176	50649.58430392213	0.024344721252941653	3344
145809	2008	145809	LOGICVISION INC	2008	11.96998898678414	3.8441644197435756	0.051	12.149543738200125	-0.17955475141598387	53492.76274386406	0.26329647182727756	3344
147349	2011	147349	UNI-PIXEL INC	2011	0.2007432648061026	1.7773620205799814	0.018	7.491553341088543	-7.29081007628244	60953.890816253	1.4619996132276156	3344
147349	2012	147349	UNI-PIXEL INC	2012	0.07817080320500293	3.309449977245547	0.027	7.110054205280645	-7.031883402075642	62223.95935118233	0.8937635796085276	3344
147349	2013	147349	UNI-PIXEL INC	2013	5.213484068200004	4.127444615759149	0.042	15.878163277867827	-10.664679209667822	62682.861773938734	15.574201298945077	3344
148265	2001	148265	KEY COMPONENTS LLC	2001	143.27734819699276	48.279078554307915	1.558	67.81739136862959	75.45995682836319	31764.418883155668	4.672019904998869	3344
148265	2002	148265	KEY COMPONENTS LLC	2002	145.1633583069437	50.24308755760369	1.457	68.66430138255967	76.49905692438404	34059.6277129837	3.0275362157467516	3344
148265	2003	148265	KEY COMPONENTS LLC	2003	160.40489450790682	53.16129032258064	1.566	76.62225618927597	83.78263831863083	37331.59884548152	4.002641281021296	3344
151828	2006	151828	METRO ONE DEVELOPMENT INC	2006	27.24697679485783	0.6225664052755453	0.062	28.39772487925337	-1.150748084395544	46689.000254203434	0.4650824794709687	3344
151828	2007	151828	METRO ONE DEVELOPMENT INC	2007	23.209855500634433	1.1160641655549408	0.04	23.92708747609037	-0.7172319754559391	50649.58430392213	0.06086180313235413	3344
154434	2004	154434	MINDSPEED TECHNOLOGIES INC	2004	100.83412834432276	81.9227471634246	0.645	100.84059115047233	-0.006462806149573677	40407.10191055915	6.280979186325232	3344
154434	2005	154434	MINDSPEED TECHNOLOGIES INC	2005	97.7233981168201	86.15638584713587	0.524	97.88654759094604	-0.16314947412593217	43090.198546961474	4.212219670430853	3344
154434	2006	154434	MINDSPEED TECHNOLOGIES INC	2006	123.3967026182954	79.77960715409061	0.512	110.61968987180886	12.777012746486541	46689.000254203434	4.659129838985955	3344
154434	2007	154434	MINDSPEED TECHNOLOGIES INC	2007	121.02058595155579	83.73993697736307	0.527	103.97354032914798	17.047045622407815	50649.58430392213	4.132516432686845	3344
154434	2008	154434	MINDSPEED TECHNOLOGIES INC	2008	158.01899779735683	89.41589861751152	0.484	115.36677942101952	42.65221837633731	53492.76274386406	7.46569694079307	3344
154434	2009	154434	MINDSPEED TECHNOLOGIES INC	2009	126.552	90.8351339544	0.486	105.771722	20.78027800000001	54873.0	8.058	3344
154434	2010	154434	MINDSPEED TECHNOLOGIES INC	2010	180.24460315212335	91.70179353665593	0.519	117.72614765209298	62.518455500030356	58192.89052542133	7.922814982973892	3344
154434	2011	154434	MINDSPEED TECHNOLOGIES INC	2011	166.86294897003265	93.08456978338982	0.541	125.41346935834217	41.449479611690464	60953.890816253	7.743183136724037	3344
154434	2012	154434	MINDSPEED TECHNOLOGIES INC	2012	145.03358258848215	95.34381361682877	0.554	126.99280622897874	18.040776359503408	62223.95935118233	4.399555964591022	3344
154434	2013	154434	MINDSPEED TECHNOLOGIES INC	2013	155.31812306366567	99.12397512793706	0.478	120.69620221998811	34.62192084367755	62682.861773938734	4.26286744002703	3344
155735	2004	155735	AMIS HOLDINGS INC	2004	436.72106511773194	554.3562881445528	2.578	213.86387329354056	222.8571918241914	40407.10191055915	35.1522250783631	3344
155735	2005	155735	AMIS HOLDINGS INC	2005	440.2829141203522	570.1521967577014	2.816	210.26902020440463	230.01389391594753	43090.198546961474	36.51295945473981	3344
155735	2006	155735	AMIS HOLDINGS INC	2006	549.8057159458184	594.0092165898618	2.924	297.8968769292225	251.90883901659586	46689.000254203434	53.15228336811071	3344
155735	2007	155735	AMIS HOLDINGS INC	2007	583.1108080980247	630.1077950194393	2.875	313.8260373463628	269.2847707516619	50649.58430392213	50.718169276961774	3344
156125	2004	156125	SIGMATEL INC	2004	164.46596367995812	13.969690115358517	0.238	104.3074809830557	60.15848269690241	40407.10191055915	12.491458692610548	3344
156125	2005	156125	SIGMATEL INC	2005	283.6633706647083	22.025559828093193	0.61	190.54294856663256	93.12042209807572	43090.198546961474	16.247737784033784	3344
156125	2006	156125	SIGMATEL INC	2006	144.68260885354252	35.52853133769879	0.407	181.72750390383848	-37.04489505029597	46689.000254203434	12.571760773199623	3344
156125	2007	156125	SIGMATEL INC	2007	120.37763005889818	41.23146671872797	0.327	133.55026892411416	-13.172638865216003	50649.58430392213	6.963604641726852	3344
156153	2004	156153	XPERI CORPORATION	2004	61.40805592374648	13.115827927190276	0.107	26.18206708485652	35.22598883888996	40407.10191055915	1.9522988318745325	3344
156153	2005	156153	XPERI CORPORATION	2005	82.79347094360078	14.723364767255216	0.162	34.52540719175388	48.268063751846896	43090.198546961474	4.3392212685342955	3344
156153	2006	156153	XPERI CORPORATION	2006	189.49595090242218	23.712213262638535	0.271	80.56731216181863	108.92863874060356	46689.000254203434	3.1642218692578408	3344
156153	2007	156153	XPERI CORPORATION	2007	185.30007764710336	45.06761275404373	0.381	90.4860434066246	94.81403424047876	50649.58430392213	11.566785685303904	3344
156153	2008	156153	XPERI CORPORATION	2008	244.1502123977344	53.61771819650973	0.417	185.07728917558214	59.072923222152276	53492.76274386406	14.104742317207666	3344
156153	2009	156153	XPERI CORPORATION	2009	299.44	61.17703240005398	0.416	137.409832	162.030168	54873.0	15.27	3344
156153	2010	156153	XPERI CORPORATION	2010	304.8870050781961	70.24650511192584	0.48	144.88490096505953	160.00210411313657	58192.89052542133	9.718205596407245	3344
156153	2011	156153	XPERI CORPORATION	2011	262.07393528860706	74.126	0.493	160.19772696857083	101.87620832003623	60953.890816253	5.714561980274609	3344
156153	2012	156153	XPERI CORPORATION	2012	240.70744576900526	74.75102403395351	1.085	171.20212295444492	69.50532281456034	62223.95935118233	31.71627275918669	3344
156153	2013	156153	XPERI CORPORATION	2013	173.27807300108742	121.83813575710694	0.525	168.42205420710312	4.856018793984292	62682.861773938734	18.875061005368472	3344
157494	2004	157494	CHEROKEE INTERNATIONAL CORP	2004	125.38181633979752	39.93704647027728	1.405	50.34766182343157	75.03415451636596	40407.10191055915	5.3417065261011505	3344
157494	2005	157494	CHEROKEE INTERNATIONAL CORP	2005	106.73013874681983	46.87154596568793	1.484	42.36288544426084	64.36725330255899	43090.198546961474	8.619175124620318	3344
157494	2006	157494	CHEROKEE INTERNATIONAL CORP	2006	131.66648509278426	53.611278381920584	1.63	50.954161673384895	80.71232341939935	46689.000254203434	3.7331174021821507	3344
157494	2007	157494	CHEROKEE INTERNATIONAL CORP	2007	121.67490483495257	59.586978853033905	1.519	46.15666628790031	75.51823854705226	50649.58430392213	2.4182423111255376	3344
157635	2004	157635	ATHEROS COMMUNICATIONS INC	2004	143.19231386189603	7.975244550740737	0.26	123.04586861634316	20.146445245552872	40407.10191055915	2.5184654931181467	3344
157635	2005	157635	ATHEROS COMMUNICATIONS INC	2005	160.41562846976333	10.261253110156074	0.327	139.85902466318709	20.556603806576256	43090.198546961474	4.325462762073089	3344
157635	2006	157635	ATHEROS COMMUNICATIONS INC	2006	273.8960307949304	12.78825062076184	0.66	214.07123143407048	59.82479936085995	46689.000254203434	5.415926998660812	3344
157635	2007	157635	ATHEROS COMMUNICATIONS INC	2007	394.8260515501013	19.367193088647994	0.878	300.90966232979184	93.91638922030948	50649.58430392213	9.849468473585977	3344
157635	2008	157635	ATHEROS COMMUNICATIONS INC	2008	464.51777847702954	26.345423179908348	1.079	362.8642227816236	101.65355569540594	53492.76274386406	7.341500491817938	3344
157635	2009	157635	ATHEROS COMMUNICATIONS INC	2009	542.468	32.528605047472205	1.302	419.84935399999995	122.61864600000001	54873.0	3.869	3344
157635	2010	157635	ATHEROS COMMUNICATIONS INC	2010	937.5766281586987	38.444265601557916	1.778	688.4059036558965	249.17072450280216	58192.89052542133	13.828159699945713	3344
157858	2003	157858	FREESCALE SEMICONDUCTOR INC	2003	3954.6323021261023	12998.602564416877	22.3	2620.4912394812795	1334.141062644823	37331.59884548152	341.1654652506466	3344
157858	2004	157858	FREESCALE SEMICONDUCTOR INC	2004	4824.942801421732	11181.06950427728	22.2	2958.6952814338897	1866.2475199878425	40407.10191055915	566.1666612436144	3344
157858	2005	157858	FREESCALE SEMICONDUCTOR INC	2005	5108.365899930933	3177.4193548387098	22.7	3037.3795473024365	2070.986352628496	43090.198546961474	519.6482055732534	3344
157858	2006	157858	FREESCALE SEMICONDUCTOR INC	2006	5773.141591313505	3524.1456869578774	24.1	3283.4089588553584	2489.7326324581472	46689.000254203434	740.187071122323	3344
157858	2007	157858	FREESCALE SEMICONDUCTOR INC	2007	5418.252750790674	3478.7854413834707	23.2	3013.1386474253354	2405.1141033653394	50649.58430392213	331.69682707133	3344
157858	2008	157858	FREESCALE SEMICONDUCTOR INC	2008	5138.845185651353	3327.2083631795863	22.9	2955.121145374449	2183.724040276904	53492.76274386406	237.46361044045028	3344
157858	2009	157858	FREESCALE SEMICONDUCTOR INC	2009	3508.0	3276.7991097598538	18.0	2254.286	1253.714	54873.0	85.0	3344
158100	2009	158100	APPLIED SOLAR INC	2009	6.938	1.5519588263932358	0.037	27.100699	-20.162699	54873.0	0.145	3344
160203	2004	160203	COLOR KINETICS INC	2004	33.89701723133553	4.531698083266269	0.087	28.49045817960775	5.40655905172778	40407.10191055915	0.8579268755626417	3344
160203	2005	160203	COLOR KINETICS INC	2005	46.255059843855186	5.429423166294504	0.122	37.84281130607356	8.412248537781625	43090.198546961474	1.0657550774180573	3344
160203	2006	160203	COLOR KINETICS INC	2006	59.39644841486001	5.030536077810451	0.137	51.48118985365146	7.915258561208557	46689.000254203434	2.557953637090328	3344
160213	2009	160213	GSI TECHNOLOGY INC	2009	53.17	12.378421171680616	0.103	38.837081000000005	14.332918999999997	54873.0	3.339	3344
160213	2010	160213	GSI TECHNOLOGY INC	2010	62.828008982944546	14.737943858633324	0.108	43.50779128816233	19.320217694782208	58192.89052542133	0.6652519370280808	3344
160213	2011	160213	GSI TECHNOLOGY INC	2011	69.54776145523427	15.2787101744346	0.127	47.9635676710693	21.58419378416496	60953.890816253	5.822858247921099	3344
160213	2012	160213	GSI TECHNOLOGY INC	2012	100.55542412803555	24.27635547747309	0.133	65.08648365098793	35.46894047704762	62223.95935118233	4.079812518382876	3344
160213	2013	160213	GSI TECHNOLOGY INC	2013	84.67551652680606	26.65544104520003	0.137	66.34833090543508	18.32718562137098	62682.861773938734	1.5758155948492698	3344
160213	2014	160213	GSI TECHNOLOGY INC	2014	67.4141927841263	27.781255278349082	0.14	52.30881406819643	15.105378715929863	64311.75515456021	0.3553824284158251	3344
160216	2010	160216	MULTI-FINELINE ELECTRON INC	2010	800.5128775770329	280.1478297881176	11.8	13.996601048010275	786.5162765290225	58192.89052542133	59.14524009277994	3344
160216	2011	160216	MULTI-FINELINE ELECTRON INC	2011	856.052666797064	340.29659985393164	12.12	18.691565694520317	837.3611011025438	60953.890816253	77.13401663121253	3344
160216	2012	160216	MULTI-FINELINE ELECTRON INC	2012	842.3233185563087	428.6645404234602	10.96	74.94815012908471	767.375168427224	62223.95935118233	81.66930747554484	3344
160216	2013	160216	MULTI-FINELINE ELECTRON INC	2013	808.0223229856994	479.7132552386062	9.15	225.81269619811653	582.2096267875828	62682.861773938734	44.4241093216203	3344
160216	2014	160216	MULTI-FINELINE ELECTRON INC	2014	646.5825189179253	507.155	5.93	254.58811515170086	391.9944037662244	64311.75515456021	17.103587054848894	3344
160232	2004	160232	NETLOGIC MICROSYSTEMS INC	2004	40.38346264574028	9.606338483161988	0.075	42.90900149433924	-2.525538848598957	40407.10191055915	1.2809249558021238	3344
160232	2005	160232	NETLOGIC MICROSYSTEMS INC	2005	71.47952894274398	12.470670913480612	0.11	51.41276086063245	20.066768082111533	43090.198546961474	1.7303967741594082	3344
160232	2006	160232	NETLOGIC MICROSYSTEMS INC	2006	87.8872063042452	15.216014476362815	0.17	68.19498311362894	19.69222319061626	46689.000254203434	1.5675771071454525	3344
160232	2007	160232	NETLOGIC MICROSYSTEMS INC	2007	103.24508077192584	19.854357581088756	0.225	83.7168105978827	19.52827017404314	50649.58430392213	2.251886715897103	3344
160232	2008	160232	NETLOGIC MICROSYSTEMS INC	2008	137.59341567023284	23.71717697588911	0.255	106.89210981749527	30.701305852737562	53492.76274386406	1.428755949009906	3344
160232	2009	160232	NETLOGIC MICROSYSTEMS INC	2009	174.689	18.49429547271274	0.55	161.70884999999998	12.980150000000009	54873.0	1.237	3344
160232	2010	160232	NETLOGIC MICROSYSTEMS INC	2010	386.1705140914885	29.624330581140025	0.645	294.2609606085743	91.90955348291419	58192.89052542133	8.457780190494992	3344
160232	2011	160232	NETLOGIC MICROSYSTEMS INC	2011	417.3534831530076	39.063	0.758	298.10665129350724	119.24683185950035	60953.890816253	12.947205569522337	3344
160254	2004	160254	LEADIS TECHNOLOGY INC	2004	126.84998353694056	1.5686496267812713	0.089	98.48233471510463	28.367648821835935	40407.10191055915	1.3872167810930705	3344
160254	2005	160254	LEADIS TECHNOLOGY INC	2005	56.112466231279676	3.126635415158837	0.139	61.06880251090653	-4.956336279626858	43090.198546961474	2.2553367129869715	3344
160254	2006	160254	LEADIS TECHNOLOGY INC	2006	91.8836474561499	5.477356517911187	0.141	98.60078530704145	-6.717137850891539	46689.000254203434	1.6661995079261267	3344
160254	2007	160254	LEADIS TECHNOLOGY INC	2007	37.47987803723274	7.4545277063742565	0.184	56.798878851580405	-19.319000814347667	50649.58430392213	0.6928101923232979	3344
160254	2008	160254	LEADIS TECHNOLOGY INC	2008	18.24653870358716	9.2689999682496	0.161	49.23458149779735	-30.98804279421019	53492.76274386406	0.2185857501962304	3344
160505	2004	160505	VOLTERRA SEMICONDUCTOR CORP	2004	37.09253927917127	6.05432837284562	0.115	27.814115173875233	9.278424105296038	40407.10191055915	0.8015271315307108	3344
160505	2005	160505	VOLTERRA SEMICONDUCTOR CORP	2005	47.094360077285565	6.9688378315352795	0.121	36.58498614280344	10.509373934482126	43090.198546961474	2.9474954226507353	3344
160505	2006	160505	VOLTERRA SEMICONDUCTOR CORP	2006	67.71616370701237	9.483664529536089	0.151	55.18622489741075	12.529938809601626	46689.000254203434	2.755198438651676	3344
160505	2007	160505	VOLTERRA SEMICONDUCTOR CORP	2007	70.72420127644261	12.020674880700046	0.164	61.96314982103289	8.761051455409728	50649.58430392213	2.022640590765236	3344
160505	2008	160505	VOLTERRA SEMICONDUCTOR CORP	2008	102.417990874764	13.797058201293858	0.182	76.63152926368784	25.786461611076156	53492.76274386406	2.2424910826949636	3344
160505	2009	160505	VOLTERRA SEMICONDUCTOR CORP	2009	104.937	15.560906300502175	0.205	80.740035	24.19696499999999	54873.0	1.361	3344
160505	2010	160505	VOLTERRA SEMICONDUCTOR CORP	2010	155.41505654804052	16.112269412723442	0.274	108.20793898071904	47.207117567321504	58192.89052542133	6.03168336376647	3344
160505	2011	160505	VOLTERRA SEMICONDUCTOR CORP	2011	160.58019950792163	20.846253982029275	0.271	119.70381618093658	40.87638332698505	60953.890816253	3.840649777605879	3344
160505	2012	160505	VOLTERRA SEMICONDUCTOR CORP	2012	172.84284582866195	24.55787568660239	0.264	128.97571150859363	43.867134320068295	62223.95935118233	6.240215565907947	3344
160573	2008	160573	ELECTRONIC SENSOR TECH INC	2008	1.69623190685966	0.6084596245193395	0.015	2.8073867212083075	-1.1111548143486472	53492.76274386406	0.003974286367204189	3344
160797	2005	160797	IKANOS COMMUNICATIONS INC	2005	74.37511474807879	11.159127672889142	0.178	62.57675138353399	11.798363364544798	43090.198546961474	5.5235111708489	3344
160797	2006	160797	IKANOS COMMUNICATIONS INC	2006	122.27639176380869	22.44175525899118	0.279	115.3973444819697	6.8790472818389965	46689.000254203434	12.872818628214313	3344
160797	2007	160797	IKANOS COMMUNICATIONS INC	2007	101.76221048046513	39.667638804820335	0.281	109.59092381114708	-7.828713330681952	50649.58430392213	4.6995455652032785	3344
160797	2008	160797	IKANOS COMMUNICATIONS INC	2008	104.72879955947135	38.83920539333453	0.29	100.52116110761484	4.20763845185651	53492.76274386406	1.6135602650849008	3344
160797	2009	160797	IKANOS COMMUNICATIONS INC	2009	130.688	35.48641606195563	0.588	115.25467599999999	15.433323999999999	54873.0	1.058	3344
160797	2010	160797	IKANOS COMMUNICATIONS INC	2010	193.89908349687417	30.15905217885255	0.386	182.89190523398142	11.007178262892745	58192.89052542133	4.363618417805854	3344
160797	2011	160797	IKANOS COMMUNICATIONS INC	2011	140.61396555451466	31.65817162955677	0.337	120.33398532000537	20.279980234509313	60953.890816253	3.681106169019532	3344
160797	2012	160797	IKANOS COMMUNICATIONS INC	2012	129.5454779218909	33.821176984907645	0.263	121.4831387634613	8.062339158429603	62223.95935118233	6.498287427535888	3344
160797	2013	160797	IKANOS COMMUNICATIONS INC	2013	81.81230636656475	40.403	0.263	90.07793963766183	-8.265633271097071	62682.861773938734	4.006644892442843	3344
160797	2014	160797	IKANOS COMMUNICATIONS INC	2014	49.38982670057085	44.09768795890588	0.235	72.79254107819409	-23.40271437762324	64311.75515456021	3.5575165691288055	3344
160888	2005	160888	MONOLITHIC POWER SYSTEMS INC	2005	86.66736608352785	8.364623388373671	0.24	64.81156835488412	21.855797728643743	43090.198546961474	1.9875750103188798	3344
160888	2006	160888	MONOLITHIC POWER SYSTEMS INC	2006	95.33990630787667	12.371811288400941	0.393	69.50029868903657	25.839607618840102	46689.000254203434	7.758987615102724	3344
160888	2007	160888	MONOLITHIC POWER SYSTEMS INC	2007	126.89051758422816	20.26632916964728	0.5	79.63704713747323	47.253470446754925	50649.58430392213	6.7485596039925335	3344
160888	2008	160888	MONOLITHIC POWER SYSTEMS INC	2008	157.8341331025802	26.7920476360915	0.579	99.10065292636877	58.73348017621145	53492.76274386406	5.19936013989488	3344
160888	2009	160888	MONOLITHIC POWER SYSTEMS INC	2009	165.008	31.83930064453311	0.692	107.28888400000002	57.719115999999985	54873.0	9.954	3344
160888	2010	160888	MONOLITHIC POWER SYSTEMS INC	2010	221.37698019301192	41.6093099546337	0.889	130.68301333279382	90.69396686021811	58192.89052542133	22.483344026057345	3344
160888	2011	160888	MONOLITHIC POWER SYSTEMS INC	2011	202.30700336631014	68.14290351375476	0.922	123.3061695096717	79.00083385663844	60953.890816253	20.326822664861727	3344
160888	2012	160888	MONOLITHIC POWER SYSTEMS INC	2012	219.92018349567488	88.09847439746814	0.993	134.56638038324263	85.35380311243225	62223.95935118233	19.980644610377905	3344
160888	2013	160888	MONOLITHIC POWER SYSTEMS INC	2013	244.251010484417	104.75125935199262	1.105	138.79879562567965	105.45221485873736	62682.861773938734	14.79520967075872	3344
160888	2014	160888	MONOLITHIC POWER SYSTEMS INC	2014	288.52772076018914	123.02800878317288	1.178	171.86694852077653	116.6607722394126	64311.75515456021	8.779330588734839	3344
160988	2005	160988	CAMBRIDGE DISPLAY TECH	2005	15.818186586933145	38.14985135120089	0.123	26.261965711088383	-10.443779124155236	43090.198546961474	3.3369669901679595	3344
160988	2006	160988	CAMBRIDGE DISPLAY TECH	2006	7.204851654138069	41.282054137113214	0.12	17.75044485601191	-10.54559320187384	46689.000254203434	1.4336582681906425	3344
163679	2005	163679	ADVANCED ANALOGIC TECH	2005	59.71096598211241	6.0755485184347435	0.2	46.12094666072163	13.590019321390788	43090.198546961474	1.1451310762327094	3344
163679	2006	163679	ADVANCED ANALOGIC TECH	2006	73.68358935250754	7.234241557082252	0.252	67.24261539020227	6.440973962305265	46689.000254203434	1.450268356743177	3344
163679	2007	163679	ADVANCED ANALOGIC TECH	2007	103.79145124330057	9.237880371980411	0.295	88.03926386758329	15.752187375717275	50649.58430392213	3.315953907327761	3344
163679	2008	163679	ADVANCED ANALOGIC TECH	2008	88.8324024543738	12.557619930801852	0.281	83.36670075519193	5.4657016991818805	53492.76274386406	2.335886812324262	3344
163679	2009	163679	ADVANCED ANALOGIC TECH	2009	86.512	14.168086615089907	0.279	82.019433	4.492566999999994	54873.0	0.983	3344
163679	2010	163679	ADVANCED ANALOGIC TECH	2010	95.15143545026	14.884715604140064	0.281	89.32384526675705	5.827590183502946	58192.89052542133	2.52775995657109	3344
163772	2005	163772	SPANSION INC	2005	1750.9944833495074	7305.019821544731	8.4	1163.9968176532816	586.9976656962258	43090.198546961474	450.15610613100216	3344
163772	2006	163772	SPANSION INC	2006	2341.643969931365	7223.579941371521	9.465	1491.7406080909323	849.9033618404328	46689.000254203434	743.9430273962649	3344
163772	2007	163772	SPANSION INC	2007	2368.0595799481093	7490.171560813763	9.3	1634.865727326099	733.1938526220102	50649.58430392213	1131.6217641808	3344
163772	2009	163772	SPANSION INC	2009	1410.653	7293.463133640553	3.4	1101.5678	309.0852	54873.0	29.713	3344
163772	2010	163772	SPANSION INC	2010	1181.850001011593	517.9078853243823	3.4	846.3801161308597	335.4698848807332	58192.89052542133	62.52282485318067	3344
163772	2011	163772	SPANSION INC	2011	1069.1720112416228	386.6753225675566	3.375	689.2404183695529	379.93159287207	60953.890816253	64.31057822471476	3344
163772	2012	163772	SPANSION INC	2012	942.093948962694	434.3374623698366	2.838	626.6843771535541	315.40957180913983	62223.95935118233	40.12068654705542	3344
163772	2013	163772	SPANSION INC	2013	996.8300539608938	451.8551053644574	3.685	687.3429184021012	309.48713555879266	62682.861773938734	52.560348387581186	3344
163772	2014	163772	SPANSION INC	2014	1278.4075242792806	505.8520456003553	3.893	924.5881274062273	353.8193968730534	64311.75515456021	55.21812173463548	3344
163911	2007	163911	INNOVATIVE CARD TECHNOLOGIES	2007	0.4213775732439445	0.6187257985819137	0.015	9.68095089294169	-9.259573319697745	50649.58430392213	0.021301631096323947	3344
163927	2005	163927	HITTITE MICROWAVE CORP	2005	70.53356763798183	29.883363748682317	0.22	29.937542074295564	40.596025563686275	43090.198546961474	3.629070665805878	3344
163927	2006	163927	HITTITE MICROWAVE CORP	2006	118.28630569778842	32.89640352861343	0.267	46.013537240803274	72.27276845698515	46689.000254203434	5.085801488679187	3344
163927	2007	163927	HITTITE MICROWAVE CORP	2007	148.10900895782436	38.40646912463244	0.315	59.380115713122365	88.72889324470201	50649.58430392213	9.005518136817333	3344
163927	2008	163927	HITTITE MICROWAVE CORP	2008	177.2449260541221	47.40282154349787	0.332	73.9244414726243	103.3204845814978	53492.76274386406	5.198366568303079	3344
163927	2009	163927	HITTITE MICROWAVE CORP	2009	162.99	50.56732515269906	0.349	67.046323	95.94367700000001	54873.0	7.302	3344
163927	2010	163927	HITTITE MICROWAVE CORP	2010	247.08762417302285	51.99339591689863	0.402	94.48130374087039	152.60632043215247	58192.89052542133	14.545723732912204	3344
163927	2011	163927	HITTITE MICROWAVE CORP	2011	271.8866778533854	65.3876898481215	0.469	106.5354903797651	165.35118747362026	60953.890816253	10.94275768710114	3344
163927	2012	163927	HITTITE MICROWAVE CORP	2012	271.94696728140457	73.03923557575266	0.486	119.04584717607969	152.90112010532488	62223.95935118233	11.2517434082564	3344
163927	2013	163927	HITTITE MICROWAVE CORP	2013	280.8992798375018	83.06556578934294	0.506	127.48967767085908	153.4096021666427	62682.861773938734	11.308518226527012	3344
163975	2007	163975	HOKU CORP	2007	5.212772001590818	2.635283160646438	0.027	3.179551351248982	2.033220650341837	50649.58430392213	4.667085936866022	3344
163975	2008	163975	HOKU CORP	2008	5.278477029578351	6.8911104882327905	0.017	8.149976400251731	-2.8714993706733805	53492.76274386406	0.7193458324639582	3344
163975	2009	163975	HOKU CORP	2009	3.229	6.180516108090562	0.021	7.309666999999999	-4.080666999999999	54873.0	28.039	3344
163975	2010	163975	HOKU CORP	2010	5.014465777813745	34.492412561876165	0.028	6.652509761871042	-1.6380439840572962	58192.89052542133	136.80106598233232	3344
163975	2011	163975	HOKU CORP	2011	2.6827535799215556	207.69597500608617	0.032	6.695848217502755	-4.0130946375812	60953.890816253	95.56662154322181	3344
163975	2012	163975	HOKU CORP	2012	3.7511699906400744	286.63050066072515	0.129	7.764640054308137	-4.013470063668062	62223.95935118233	174.23645834321658	3344
164099	2012	164099	API TECHNOLOGIES CORP	2012	288.8411178424858	10.545321756065894	2.234	117.00928381144377	171.83183403104204	62223.95935118233	1.1660673453703616	3344
164099	2013	164099	API TECHNOLOGIES CORP	2013	250.62065286526192	59.14918817549228	1.975	107.18782699686082	143.4328258684011	62682.861773938734	2.3210196343432066	3344
164099	2014	164099	API TECHNOLOGIES CORP	2014	231.66876014827977	54.312512086637014	1.862	88.18223297897326	143.4865271693065	64311.75515456021	2.522753706131039	3344
164615	2007	164615	MATHSTAR INC-OLD	2007	0.5567865462189648	2.7768050529810773	0.077	16.399964964111888	-15.843178417892922	50649.58430392213	0.24649030268603422	3344
165051	2006	165051	SUNPOWER CORP	2006	214.72019464720194	130.93959804336274	1.572	104.8650506591132	109.85514398808874	46689.000254203434	112.43680380371029	3344
165051	2007	165051	SUNPOWER CORP	2007	733.6609662329791	241.74119190999818	3.53	477.35339848114694	256.30756775183227	50649.58430392213	196.26308528767345	3344
165051	2008	165051	SUNPOWER CORP	2008	1410.988632787917	447.68133545111965	5.4	884.9748269351794	526.0138058527375	53492.76274386406	263.84194263117627	3344
165051	2009	165051	SUNPOWER CORP	2009	1524.283	723.3780329465227	5.16	1076.5183200000001	447.76467999999977	54873.0	167.811	3344
165051	2010	165051	SUNPOWER CORP	2010	2244.9572096222714	862.7072838733395	5.15	1651.4608412406176	593.4963683816537	58192.89052542133	117.60548783497015	3344
165051	2011	165051	SUNPOWER CORP	2011	2380.6030533565304	858.5005017536538	5.22	2053.1957298304496	327.4073235260811	60953.890816253	127.09920711661186	3344
165051	2012	165051	SUNPOWER CORP	2012	2486.5525647223394	985.792	5.02	2129.2061343509254	357.34643037141416	62223.95935118233	99.42028710494606	3344
165051	2013	165051	SUNPOWER CORP	2013	2572.0706210632143	1155.429	6.32	1962.8258273661747	609.2447936970394	62682.861773938734	143.17115290760972	3344
165051	2014	165051	SUNPOWER CORP	2014	3091.474934387222	1337.118	7.188	2191.037357924083	900.4375764631392	64311.75515456021	154.09382096110178	3344
165269	2008	165269	SOLAR ENERTECH CORP	2008	28.92149150409062	3.6947065724044146	0.44	19.95063719320327	8.970854310887347	53492.76274386406	10.471251005991236	3344
165269	2009	165269	SOLAR ENERTECH CORP	2009	32.835	14.982147204414508	0.328	23.493656000000005	9.341343999999996	54873.0	0.419	3344
165269	2010	165269	SOLAR ENERTECH CORP	2010	70.84083598033463	14.556817391477143	0.393	50.28150808262691	20.559327897707725	58192.89052542133	0.7688891082268173	3344
165269	2011	165269	SOLAR ENERTECH CORP	2011	43.951451013496126	15.409301817242442	0.29	31.29752210749545	12.653928906000678	60953.890816253	1.7076000773544768	3344
165666	2006	165666	AVIZA TECHNOLOGY INC	2006	146.03987362457787	25.839432124580423	0.675	118.52577895195557	27.514094672622274	46689.000254203434	7.006342977565999	3344
165666	2007	165666	AVIZA TECHNOLOGY INC	2007	219.1494801431737	35.06762546231521	0.67	175.63715129822168	43.512328844952016	50649.58430392213	9.80585084800779	3344
165666	2008	165666	AVIZA TECHNOLOGY INC	2008	130.96778634361232	45.59357371913597	0.491	121.112531466331	9.855254877281313	53492.76274386406	4.085566385485906	3344
166434	2007	166434	POSITIVEID CORP	2007	30.401681722629398	2.0700322858596243	0.152	30.510266462132833	-0.10858473950343614	50649.58430392213	0.6522356569017285	3344
166434	2009	166434	POSITIVEID CORP	2009	0.353	2.700177520321405	0.02	4.81354	-4.46054	54873.0	0.011	3344
166434	2010	166434	POSITIVEID CORP	2010	3.1288566977562873	0.59870497510819	0.018	14.827454630060494	-11.698597932304207	58192.89052542133	0.028623599664412972	3344
166449	2006	166449	TECHWELL INC	2006	48.76348186076915	1.4193621352635148	0.096	32.32378981007373	16.439692050695424	46689.000254203434	0.4993407871105713	3344
166449	2007	166449	TECHWELL INC	2007	56.70795219968562	1.900700375240789	0.142	38.51444236122947	18.19350983845615	50649.58430392213	1.32678730828532	3344
166449	2008	166449	TECHWELL INC	2008	66.50802391441157	3.2641831288174767	0.165	46.93006607929515	19.577957835116422	53492.76274386406	0.5832265243872147	3344
166449	2009	166449	TECHWELL INC	2009	63.174	3.629070665805878	0.206	47.079162	16.094838000000003	54873.0	0.407	3344
166460	2008	166460	ASCENT SOLAR TECHNOLOGIES	2008	1.474984266834487	1.833338523986006	0.058	10.982536186280678	-9.507551919446191	53492.76274386406	16.415789839736902	3344
166460	2009	166460	ASCENT SOLAR TECHNOLOGIES	2009	1.464	28.85559522843463	0.108	14.697716	-13.233716	54873.0	7.049	3344
166460	2010	166460	ASCENT SOLAR TECHNOLOGIES	2010	2.509761871042143	106.04091527815038	0.117	20.39316365549194	-17.883401784449795	58192.89052542133	5.513497507772788	3344
166460	2011	166460	ASCENT SOLAR TECHNOLOGIES	2011	4.066337928123617	110.709	0.077	99.54274802087731	-95.4764100927537	60953.890816253	9.361825565654613	3344
166460	2012	166460	ASCENT SOLAR TECHNOLOGIES	2012	1.231190150478796	36.419088979914136	0.094	17.78218734250126	-16.550997192022464	62223.95935118233	5.946089547140811	3344
166460	2013	166460	ASCENT SOLAR TECHNOLOGIES	2013	1.3500482160077147	39.46009968908849	0.114	16.79186277929379	-15.441814563286075	62682.861773938734	0.4880429477794046	3344
166460	2014	166460	ASCENT SOLAR TECHNOLOGIES	2014	5.449179457328717	37.33803906401083	0.119	26.281727479754498	-20.832548022425783	64311.75515456021	0.12461461775619843	3344
166592	2009	166592	WINTEGRA INC -REDH	2009	28.578	3.6022435779422413	0.159	20.030192999999997	8.547807000000002	54873.0	1.225	3344
170615	2012	170615	AUDIENCE INC	2012	148.01538730547298	4.438284300575278	0.279	113.71858099420918	34.2968063112638	62223.95935118233	5.6529123219825985	3344
170615	2013	170615	AUDIENCE INC	2013	164.27399002851925	15.622	0.329	135.8464904901619	28.427499538357367	62682.861773938734	8.52198070353268	3344
170615	2014	170615	AUDIENCE INC	2014	115.74400294108636	19.902339972925933	0.319	125.21640064132023	-9.47239770023387	64311.75515456021	5.072276478298595	3344
174057	2008	174057	PERFECTENERGY INTL LTD	2008	62.59833228445562	2.232053086668007	0.28	49.746302706104466	12.852029578351157	53492.76274386406	4.951960813536419	3344
174057	2009	174057	PERFECTENERGY INTL LTD	2009	31.455	9.040040694716954	0.2	23.825399999999995	7.6296000000000035	54873.0	0.348	3344
174057	2010	174057	PERFECTENERGY INTL LTD	2010	75.46583850931677	8.875679623468312	0.15	67.17087826491594	8.294960244400833	58192.89052542133	0.753096777377486	3344
175404	2007	175404	FIRST SOLAR INC	2007	477.22288506334866	214.47954966973612	1.462	249.7908092343238	227.43207582902485	50649.58430392213	245.85226811653007	3344
175404	2008	175404	FIRST SOLAR INC	2008	1225.516244493392	500.8498523606422	3.524	544.1919052863435	681.3243392070484	53492.76274386406	456.3186185380588	3344
175404	2009	175404	FIRST SOLAR INC	2009	2066.2	979.539485294881	4.7	989.8818999999999	1076.3181	54873.0	279.941	3344
175404	2010	175404	FIRST SOLAR INC	2010	2593.233455398871	1232.0173659011602	6.1	1315.400894248083	1277.832561150788	58192.89052542133	581.2702956126931	3344
175404	2011	175404	FIRST SOLAR INC	2011	2847.6790990230493	1782.5608314207082	7.0	1568.9434727555358	1278.7356262675137	60953.890816253	707.6136143879327	3344
175404	2012	175404	FIRST SOLAR INC	2012	3464.761424765745	2433.745	5.6	2342.435843370396	1122.3255813953485	62223.95935118233	359.80910272588403	3344
175404	2013	175404	FIRST SOLAR INC	2013	3394.6008330084737	2328.883	4.85	2378.402613923142	1016.1982190853321	62682.861773938734	265.21004617637124	3344
175404	2014	175404	FIRST SOLAR INC	2014	3463.75621661918	2295.626511375413	6.06	2388.0155224002533	1075.740694218927	64311.75515456021	237.7360754703048	3344
175955	2007	175955	IPG PHOTONICS CORP	2007	178.66125030774765	133.58081225984154	1.3	57.30100562468039	121.36024468306725	50649.58430392213	34.83425302280289	3344
175955	2008	175955	IPG PHOTONICS CORP	2008	225.25566393958462	175.1350087407721	1.42	80.11131214600375	145.14435179358085	53492.76274386406	36.87243534332866	3344
175955	2009	175955	IPG PHOTONICS CORP	2009	185.894	202.92741979860233	1.43	81.86561	104.02839	54873.0	10.498	3344
175955	2010	175955	IPG PHOTONICS CORP	2010	302.72523114896717	212.53484311109668	1.76	101.63801161308592	201.0872195358812	58192.89052542133	28.005724719932882	3344
175955	2011	175955	IPG PHOTONICS CORP	2011	488.45674754732914	226.73383640077472	2.137	158.7912475936545	329.6654999536746	60953.890816253	51.2541094565848	3344
175955	2012	175955	IPG PHOTONICS CORP	2012	578.5955998066302	272.27672407528524	2.4	188.66790779959476	389.9276920070354	62223.95935118233	64.69254343102745	3344
175955	2013	175955	IPG PHOTONICS CORP	2013	664.8002626233612	342.0940517731072	2.8	231.99942551139745	432.8008371119637	62682.861773938734	66.56061117993768	3344
175955	2014	175955	IPG PHOTONICS CORP	2014	786.1605547215669	401.1326716146532	3.03	274.02216026878256	512.1383944527844	64311.75515456021	81.78503516901435	3344
176035	2007	176035	NETLIST INC	2007	94.74840444671705	7.850107302041491	0.119	97.90902884305817	-3.160624396341124	50649.58430392213	6.358029700559928	3344
176035	2008	176035	NETLIST INC	2008	65.89344713656386	13.312508812460004	0.153	67.39478445563246	-1.501337319068591	53492.76274386406	1.1505559033056125	3344
176035	2009	176035	NETLIST INC	2009	18.479	12.772127382602898	0.128	22.517255999999996	-4.038255999999997	54873.0	0.173	3344
176035	2010	176035	NETLIST INC	2010	38.293847492261314	12.10875455479772	0.232	38.54974811337932	-0.25590062111800804	58192.89052542133	0.9297734787543799	3344
176035	2011	176035	NETLIST INC	2011	62.51762937646053	13.131948389190942	0.276	48.91242446391254	13.605204912548002	60953.890816253	0.7193966350802553	3344
176035	2012	176035	NETLIST INC	2012	37.92621087602728	13.966769455489734	0.158	39.95827324809972	-2.032062372072449	62223.95935118233	1.6110515479567729	3344
176035	2013	176035	NETLIST INC	2013	23.644309485217175	15.490343260569666	0.124	24.45716161595437	-0.8128521307371931	62682.861773938734	0.11168675151105605	3344
176035	2014	176035	NETLIST INC	2014	19.60213637245591	15.340454908800233	0.114	25.467700131736162	-5.865563759280253	64311.75515456021	0.13015304521202944	3344
176558	2009	176558	OPNEXT INC	2009	283.498	237.2604835473515	0.438	239.08862599999998	44.409374000000014	54873.0	5.071	3344
176558	2010	176558	OPNEXT INC	2010	322.247961640399	292.2464386035313	0.627	300.5484836223117	21.69947801808729	58192.89052542133	4.1030449587918865	3344
176558	2011	176558	OPNEXT INC	2011	328.53127991846736	308.7462155797972	0.554	325.3581568679933	3.1731230504741093	60953.890816253	7.61651518081609	3344
176558	2012	176558	OPNEXT INC	2012	367.8563714347428	310.9364397195205	0.512	355.3326352817749	12.523736152967913	62223.95935118233	8.164369004810384	3344
176558	2013	176558	OPNEXT INC	2013	307.58427542625003	339.901734292129	0.503	306.0246353023246	1.5596401239254039	62682.861773938734	6.597026692195067	3344
177538	2009	177538	EVOLUCIA INC	2009	0.996	0.2921366550352998	0.013	14.563651000000002	-13.567651000000001	54873.0	0.033	3344
177538	2011	177538	EVOLUCIA INC	2011	2.716725517042588	0.3053233790473099	0.011	6.054921298345669	-3.338195781303081	60953.890816253	0.020305550183716884	3344
177538	2012	177538	EVOLUCIA INC	2012	2.821348857780566	0.688	0.023	7.571862625098999	-4.750513767318433	62223.95935118233	0.06262037818913252	3344
177650	2007	177650	AUTHENTEC INC	2007	49.56536560422703	4.148382718841892	0.115	45.7500189383179	3.815346665909134	50649.58430392213	2.024669317536314	3344
177650	2008	177650	AUTHENTEC INC	2008	62.88152926368785	6.233423210256975	0.13	57.371971365638764	5.5095578980490885	53492.76274386406	1.9086510278498119	3344
177650	2009	177650	AUTHENTEC INC	2009	34.066	8.522869011594485	0.126	38.746002000000004	-4.680002000000002	54873.0	0.736	3344
177650	2010	177650	AUTHENTEC INC	2010	45.18481801444555	8.941970853133235	0.242	41.229194569769554	3.9556234446759926	58192.89052542133	0.8468637417953906	3344
177650	2011	177650	AUTHENTEC INC	2011	71.84549974778412	11.474478617219832	0.217	59.62016285940766	12.225336888376454	60953.890816253	1.1187391220266873	3344
177895	2010	177895	GT ADVANCED TECHNOLOGIES INC	2010	547.2990470795315	12.097	0.332	377.6006716976552	169.69837538187628	58192.89052542133	10.37260030597641	3344
177895	2011	177895	GT ADVANCED TECHNOLOGIES INC	2011	560.2744520738323	22.491	0.384	381.59375739919085	178.6806946746415	60953.890816253	4.4217752852446335	3344
177895	2012	177895	GT ADVANCED TECHNOLOGIES INC	2012	390.48990465219134	26.18467156886937	0.531	330.1447435277661	60.34516112442529	62223.95935118233	23.878288755846942	3344
177895	2013	177895	GT ADVANCED TECHNOLOGIES INC	2013	306.702025072324	105.29007928833882	0.541	326.52682451424937	-19.82479944192535	62682.861773938734	37.42726282989826	3344
178865	2008	178865	RUBICON TECHNOLOGY INC	2008	37.20696979232221	42.929620866120075	0.099	24.021987098804278	13.184982693517934	53492.76274386406	18.580782338271383	3344
178865	2009	178865	RUBICON TECHNOLOGY INC	2009	19.808	60.54946366012647	0.138	17.261526	2.546474	54873.0	5.53	3344
178865	2010	178865	RUBICON TECHNOLOGY INC	2010	78.25884637950917	64.93485876363944	0.25	28.310943411495735	49.94790296801344	58192.89052542133	48.787445096974785	3344
178865	2011	178865	RUBICON TECHNOLOGY INC	2011	137.94665376419357	111.19519968440832	0.376	48.56755782950206	89.37909593469152	60953.890816253	46.633146393347516	3344
178865	2012	178865	RUBICON TECHNOLOGY INC	2012	69.16367526202647	156.98389190943763	0.322	50.14583791901092	19.017837343015547	62223.95935118233	10.413009857965596	3344
178865	2013	178865	RUBICON TECHNOLOGY INC	2013	42.58704528201235	164.3297862827506	0.292	46.51841030796692	-3.9313650259545696	62682.861773938734	8.185043360738822	3344
178865	2014	178865	RUBICON TECHNOLOGY INC	2014	46.65400365593374	172.658	0.283	58.316015644945516	-11.662011989011775	64311.75515456021	6.315653442132664	3344
178943	2007	178943	ENTROPIC COMMUNICATIONS INC	2007	116.03980834422286	3.879651623119557	0.281	105.46426434104121	10.575544003181648	50649.58430392213	6.072993589223403	3344
178943	2008	178943	ENTROPIC COMMUNICATIONS INC	2008	143.59758495909375	12.747204833535768	0.297	135.77643171806164	7.821153241032096	53492.76274386406	7.391179071407991	3344
178943	2009	178943	ENTROPIC COMMUNICATIONS INC	2009	116.305	18.396494360139574	0.262	107.906274	8.39872600000001	54873.0	2.107	3344
178943	2010	178943	ENTROPIC COMMUNICATIONS INC	2010	212.6742468691201	19.796913966635866	0.3	156.1972201428369	56.47702672628321	58192.89052542133	3.5661057099146225	3344
178943	2011	178943	ENTROPIC COMMUNICATIONS INC	2011	247.71512986545054	23.486	0.344	180.52456788725434	67.19056197819619	60953.890816253	4.1520015470895375	3344
178943	2012	178943	ENTROPIC COMMUNICATIONS INC	2012	330.8661530707754	27.350045207507428	0.693	256.1577733663845	74.7083797043909	62223.95935118233	8.597018890480753	3344
178943	2013	178943	ENTROPIC COMMUNICATIONS INC	2013	266.0867067440858	38.820510289690574	0.639	246.06662221219145	20.02008453189437	62682.861773938734	7.820888238164959	3344
178943	2014	178943	ENTROPIC COMMUNICATIONS INC	2014	195.68334303483348	44.41597369947786	0.316	228.51381595743592	-32.83047292260245	64311.75515456021	11.121162331308732	3344
179026	2008	179026	INTELLON CORP	2008	74.12090937696664	12.511875141370732	0.128	66.32394587791063	7.796963499056004	53492.76274386406	1.533080966149016	3344
180597	2010	180597	STR HOLDINGS INC	2010	376.13955935015275	89.8387433306507	2.2	135.53705464624596	240.60250470390682	58192.89052542133	19.173863692444357	3344
180597	2011	180597	STR HOLDINGS INC	2011	239.27670657511402	106.631	0.5	148.90208875940667	90.37461781570738	60953.890816253	20.824792109843354	3344
180597	2012	180597	STR HOLDINGS INC	2012	98.06835831027637	82.31653753146128	0.375	85.1362331958487	12.932125114427663	62223.95935118233	10.130269362505572	3344
180597	2013	180597	STR HOLDINGS INC	2013	32.68429799544513	44.518468381357565	0.2	39.317179260961446	-6.632881265516317	62682.861773938734	2.1004617637121297	3344
180597	2014	180597	STR HOLDINGS INC	2014	40.12131981250574	48.713	0.22	45.15311009670863	-5.03179028420289	64311.75515456021	2.875366920818949	3344
181290	2009	181290	DIGIMARC CORP	2009	19.071	1.3949745148886703	0.093	16.096811000000002	2.974188999999999	54873.0	0.46	3344
181290	2010	181290	DIGIMARC CORP	2010	31.511117405466646	1.8520174471171522	0.098	18.93444069031096	12.576676715155685	58192.89052542133	0.7708631495829837	3344
181290	2011	181290	DIGIMARC CORP	2011	37.10044369408786	2.645	0.109	23.120590082253266	13.97985361183459	60953.890816253	0.6555791916457165	3344
181290	2012	181290	DIGIMARC CORP	2012	45.64249200292112	3.323	0.124	21.769021733540416	23.8734702693807	62223.95935118233	0.5408123570879626	3344
181290	2013	181290	DIGIMARC CORP	2013	35.8686062496153	3.3450130780239844	0.149	27.210039188329674	8.658567061285622	62682.861773938734	1.5429665502871945	3344
181290	2014	181290	DIGIMARC CORP	2014	26.202220111720433	4.85979501063624	0.15	30.037478426927276	-3.835258315206844	64311.75515456021	1.291376668451271	3344
182012	2009	182012	GIGPEAK INC	2009	14.826	4.791809021789825	0.098	16.206446	-1.3804459999999992	54873.0	0.834	3344
182012	2010	182012	GIGPEAK INC	2010	27.18756954700872	8.899636987098756	0.083	23.14761365245716	4.039955894551561	58192.89052542133	1.1419829245422692	3344
182012	2011	182012	GIGPEAK INC	2011	33.21837778852984	9.907287186561712	0.08	31.109235219633725	2.109142568896114	60953.890816253	2.391220266872945	3344
182012	2012	182012	GIGPEAK INC	2012	37.783240591218124	12.724671376196012	0.084	34.34098515783302	3.4422554333851085	62223.95935118233	1.8605842671043766	3344
182012	2013	182012	GIGPEAK INC	2013	29.674388067051026	15.297	0.076	26.79091487309957	2.8834731939514566	62682.861773938734	1.4416037842099336	3344
182012	2014	182012	GIGPEAK INC	2014	33.64582375948449	15.663031140502394	0.077	30.26648284876893	3.379340910715563	64311.75515456021	1.1021470637103772	3344
184551	2010	184551	MAXLINEAR INC	2010	69.4974406700791	5.0785345749374535	0.21	51.83759888320148	17.65984178687762	58192.89052542133	2.921581207126289	3344
184551	2011	184551	MAXLINEAR INC	2011	74.05573456593129	8.307252079048556	0.256	70.65467011190151	3.401064454029789	60953.890816253	2.86404950686521	3344
184551	2012	184551	MAXLINEAR INC	2012	100.51942441603323	11.482	0.274	93.11489668082653	7.4045277352067025	62223.95935118233	4.796151693122194	3344
184551	2013	184551	MAXLINEAR INC	2013	122.74154168119986	14.968168583131815	0.336	108.12976056135744	14.611781119842416	62682.861773938734	2.9676765401509178	3344
184551	2014	184551	MAXLINEAR INC	2014	135.93537779684036	15.8064204215819	0.378	115.20896214372515	20.726415653115218	64311.75515456021	8.123026935218862	3344
184639	2011	184639	AEROFLEX HOLDING CORP	2011	750.8971679757873	162.417	2.9	400.459135877454	350.4380320983333	60953.890816253	25.098626958035197	3344
184639	2012	184639	AEROFLEX HOLDING CORP	2012	692.2384620923032	185.30622316537531	2.8	396.531890602018	295.7065714902852	62223.95935118233	20.658083247151247	3344
184639	2013	184639	AEROFLEX HOLDING CORP	2013	663.8851843492891	197.19783407464706	2.7	370.7827407209832	293.10244362830593	62682.861773938734	19.547997146825843	3344
184702	2011	184702	NEOPHOTONICS CORP	2011	206.9498347728513	87.68664286293921	2.565	52.1349303575289	154.8149044153224	60953.890816253	11.290852833107715	3344
184702	2012	184702	NEOPHOTONICS CORP	2012	252.4330662497557	111.94007141118234	2.348	104.80173621468174	147.63133003507397	62223.95935118233	12.085732990502574	3344
184702	2013	184702	NEOPHOTONICS CORP	2013	289.54430743347217	120.51625979909983	2.094	163.81789942345966	125.72640801001252	62682.861773938734	18.36355445433044	3344
184702	2014	184702	NEOPHOTONICS CORP	2014	312.6711804172666	149.926	2.541	146.98690195357577	165.68427846369087	64311.75515456021	10.178706592574814	3344
185112	2011	185112	INPHI CORP	2011	81.63250599656163	20.819897650360424	0.165	66.21887192579705	15.413634070764576	60953.890816253	5.025140204989364	3344
185112	2012	185112	INPHI CORP	2012	94.63398578525657	25.032014986188578	0.192	84.97451014677597	9.659475638480608	62223.95935118233	7.953736823628755	3344
185112	2013	185112	INPHI CORP	2013	105.32017480867478	33.22851578349428	0.229	95.88383224932805	9.436342559346723	62682.861773938734	15.559184592859555	3344
185112	2014	185112	INPHI CORP	2014	159.45385660161554	47.878	0.446	121.12343780317185	38.33041879844369	64311.75515456021	19.54234127789983	3344
185138	2010	185138	VISHAY PRECISION GROUP INC	2010	209.9297954559249	120.08474109943323	2.3	45.3246201468833	164.6051753090416	58192.89052542133	8.288999654542762	3344
185138	2011	185138	VISHAY PRECISION GROUP INC	2011	245.11987975993165	127.06103103070532	2.35	73.48078526647382	171.63909449345783	60953.890816253	15.752272287758654	3344
185138	2012	185138	VISHAY PRECISION GROUP INC	2012	223.83180934552524	138.3915247600199	2.25	60.14317599744915	163.6886333480761	62223.95935118233	7.895860413484254	3344
185138	2013	185138	VISHAY PRECISION GROUP INC	2013	246.49151603438725	140.38756654354566	2.387	70.01120868298489	176.48030735140236	62682.861773938734	6.33329579156812	3344
185138	2014	185138	VISHAY PRECISION GROUP INC	2014	256.14309202128203	138.08693305096182	2.536	65.95780766520636	190.18528435607567	64311.75515456021	9.00825225690919	3344
185180	2014	185180	INVENSENSE INC	2014	213.0592404235981	8.68400696190292	0.326	131.7849984171236	81.2742420064745	64311.75515456021	4.685509627633061	3344
185380	2011	185380	SEMILEDS CORP	2011	34.90050340234098	50.511279288257704	0.581	4.7025293651365665	30.19797403720441	60953.890816253	20.752272287758654	3344
185380	2012	185380	SEMILEDS CORP	2012	30.135873198728696	78.11713868376206	0.519	17.042856114293937	13.093017084434758	62223.95935118233	10.976593261667789	3344
185380	2013	185380	SEMILEDS CORP	2013	18.431851289521738	86.1486184387016	0.519	8.827696505878246	9.60415478364349	62682.861773938734	2.5490858580170443	3344
185380	2014	185380	SEMILEDS CORP	2014	14.788149872859286	87.90823372778127	0.376	8.963189444767831	5.824960428091455	64311.75515456021	2.475677072756475	3344
185943	2013	185943	PEREGRINE SEMICONDUCTOR CORP	2013	207.55042163359937	48.696543049582075	0.423	177.58863948788442	29.96178214571495	62682.861773938734	5.522393662950033	3344
187450	2012	187450	ENPHASE ENERGY INC	2012	222.86701706386347	24.141	0.384	225.29703465229417	-2.430017588430698	62223.95935118233	12.32482897995199	3344
187450	2013	187450	ENPHASE ENERGY INC	2013	238.8703091979729	35.55248482455708	0.398	229.4921972137303	9.37811198424259	62682.861773938734	5.87247062356872	3344
187450	2014	187450	ENPHASE ENERGY INC	2014	351.1983905721842	40.08799071746277	0.539	312.44338510870784	38.7550054634764	64311.75515456021	12.229770893717578	3344
187722	2012	187722	INTERMOLECULAR INC	2012	68.73579297079908	43.569107872067725	0.232	44.85453853512029	23.881254435678798	62223.95935118233	6.224086074556201	3344
187722	2013	187722	INTERMOLECULAR INC	2013	69.14996204271733	51.131	0.253	51.888830300170305	17.261131742547036	62682.861773938734	12.70225626008935	3344
187722	2014	187722	INTERMOLECULAR INC	2014	48.70663684731881	63.13576469427035	0.166	46.34864536421474	2.357991483104071	64311.75515456021	2.5984455480273967	3344
187740	2012	187740	M/ACOM TECHNOLOGY SOLUTIONS	2012	310.83488474949337	43.966	0.669	200.74177509437064	110.09310965512275	62223.95935118233	14.876134994354677	3344
187740	2013	187740	M/ACOM TECHNOLOGY SOLUTIONS	2013	326.96403290998995	54.43616443764497	0.675	219.5655942879419	107.39843862204806	62682.861773938734	11.04572587003041	3344
187740	2014	187740	M/ACOM TECHNOLOGY SOLUTIONS	2014	427.54204834410706	62.877586540321026	0.918	285.2241373323938	142.31791101171328	64311.75515456021	15.667288201303377	3344
187792	2012	187792	PLURES TECHNOLOGIES INC	2012	5.699268691564753	3.193772964610327	0.036	7.4294601071762845	-1.7301914156115314	62223.95935118233	0.8671973585585927	3344
233491	2007	233491	MAGNACHIP SEMICONDUCTOR CORP	2007	750.2944908433233	623.4646035962619	3.605	502.2225583773649	248.07193246595835	50649.58430392213	86.51911060618355	3344
233491	2010	233491	MAGNACHIP SEMICONDUCTOR CORP	2010	779.3361927691343	684.9302020383756	3.337	431.59784935359215	347.73834341554215	58192.89052542133	43.04989389527711	3344
233491	2011	233491	MAGNACHIP SEMICONDUCTOR CORP	2011	795.5929132480261	221.288	3.342	447.3436827638744	348.24923048415167	60953.890816253	46.5799651904854	3344
233491	2012	233491	MAGNACHIP SEMICONDUCTOR CORP	2012	843.0021702683521	263.207	3.597	473.60798165043246	369.39418861791967	62223.95935118233	58.37168040836077	3344
233491	2013	233491	MAGNACHIP SEMICONDUCTOR CORP	2013	753.1719977841154	343.7042886048463	3.479	519.1306161390263	234.0413816450892	62682.861773938734	39.872170289447006	3344
233491	2014	233491	MAGNACHIP SEMICONDUCTOR CORP	2014	713.0275828967658	385.62305680304	3.399	490.31440621712966	222.7131766796361	64311.75515456021	16.07897797552015	3344
264416	2004	264416	ULTRA CLEAN HOLDINGS INC	2004	155.51596916764458	5.8256967564497995	0.345	128.4447516610805	27.071217506564114	40407.10191055915	3.6041605657328173	3344
264416	2005	264416	ULTRA CLEAN HOLDINGS INC	2005	128.98558326994868	9.638232248438353	0.378	107.95194481600964	21.03363845393903	43090.198546961474	1.1916983288706382	3344
264416	2006	264416	ULTRA CLEAN HOLDINGS INC	2006	306.1589860914406	10.205249546029824	1.005	232.72221465664384	73.43677143479678	46689.000254203434	4.091272436596178	3344
264416	2007	264416	ULTRA CLEAN HOLDINGS INC	2007	382.37126678408424	17.848349765181833	1.027	303.95223472151207	78.4190320625722	50649.58430392213	7.817698612350888	3344
264416	2008	264416	ULTRA CLEAN HOLDINGS INC	2008	262.4675503461296	25.50297924582218	0.819	220.4308920704845	42.0366582756451	53492.76274386406	9.387264399336296	3344
264416	2009	264416	ULTRA CLEAN HOLDINGS INC	2009	159.757	23.403614770521248	0.901	123.897427	35.85957300000001	54873.0	0.738	3344
264416	2010	264416	ULTRA CLEAN HOLDINGS INC	2010	448.27118781232934	23.178850000529174	1.241	347.9315293260768	100.33965848625247	58192.89052542133	3.767457928243597	3344
264416	2011	264416	ULTRA CLEAN HOLDINGS INC	2011	465.97041353112553	26.867188078783325	1.155	368.29743975128423	97.67297377984129	60953.890816253	3.851286018178302	3344
264416	2012	264416	ULTRA CLEAN HOLDINGS INC	2012	414.953251802557	31.4450265187258	1.506	302.97977227610744	111.97347952644954	62223.95935118233	0.5778153078360864	3344
264416	2013	264416	ULTRA CLEAN HOLDINGS INC	2013	455.50996122201934	28.928629392193457	1.622	328.17000348796654	127.33995773405282	62682.861773938734	2.7809062582122612	3344
264416	2014	264416	ULTRA CLEAN HOLDINGS INC	2014	527.7176965574992	30.523	1.546	392.4758269252371	135.2418696322621	64311.75515456021	4.923662008233795	3344
